(dp1
S'IC'
p2
(lp3
(dp4
S'uniprot'
p5
VO95264
p6
sS'geneid'
p7
L9177L
sS'sym'
p8
VHTR3B
p9
sa(dp10
g5
VA5X5Y0
p11
sg7
L285242L
sg8
VHTR3E
p12
sa(dp13
g5
VP30532
p14
sg7
L1138L
sg8
VCHRNA5
p15
sa(dp16
g5
VQ05901
p17
sg7
L1142L
sg8
VCHRNB3
p18
sa(dp19
g5
VP30926
p20
sg7
L1143L
sg8
VCHRNB4
p21
sa(dp22
g5
VQ70Z44
p23
sg7
L200909L
sg8
VHTR3D
p24
sa(dp25
g5
VP02708
p26
sg7
L1134L
sg8
VCHRNA1
p27
sa(dp28
g5
VP17787
p29
sg7
L1141L
sg8
VCHRNB2
p30
sa(dp31
g5
VQ15825
p32
sg7
L8973L
sg8
VCHRNA6
p33
sa(dp34
g5
VP46098
p35
sg7
L3359L
sg8
VHTR3A
p36
sa(dp37
g5
VP43681
p38
sg7
L1137L
sg8
VCHRNA4
p39
sa(dp40
g5
VQ8WXA8
p41
sg7
L170572L
sg8
VHTR3C
p42
sa(dp43
g5
VP32297
p44
sg7
L1136L
sg8
VCHRNA3
p45
sa(dp46
g5
VQ07001
p47
sg7
L1144L
sg8
VCHRND
p48
sa(dp49
g5
VP11230
p50
sg7
L1140L
sg8
VCHRNB1
p51
sa(dp52
g5
VQ9GZZ6
p53
sg7
L57053L
sg8
VCHRNA10
p54
sa(dp55
g5
VQ15822
p56
sg7
L1135L
sg8
VCHRNA2
p57
sa(dp58
g5
VP36544
p59
sg7
L89832L
sg8
VCHRFAM7A
p60
sa(dp61
g5
VQ9UGM1
p62
sg7
L55584L
sg8
VCHRNA9
p63
sa(dp64
g5
VQ04844
p65
sg7
L1145L
sg8
VCHRNE
p66
sa(dp67
g5
VP07510
p68
sg7
L1146L
sg8
VCHRNG
p69
sa(dp70
g5
VQ5XXA6
p71
sg7
L55107L
sg8
VANO1
p72
sa(dp73
g5
VQ4KMQ2
p74
sg7
L196527L
sg8
VANO6
p75
sa(dp76
g5
VQ9NQ90
p77
sg7
L57101L
sg8
VANO2
p78
sa(dp79
g5
VQ9UHC3
p80
sg7
L9311L
sg8
VASIC3
p81
sa(dp82
g5
VQ96FT7
p83
sg7
L55515L
sg8
VASIC4
p84
sa(dp85
g5
VP78348
p86
sg7
L41L
sg8
VASIC1
p87
sa(dp88
g5
VQ16515
p89
sg7
L40L
sg8
VASIC2
p90
sa(dp91
g5
VQ9NY37
p92
sg7
L51802L
sg8
VASIC5
p93
sa(dp94
g5
VQ8NFU0
p95
sg7
L266675L
sg8
VBEST4
p96
sa(dp97
g5
VO76090
p98
sg7
L7439L
sg8
VBEST1
p99
sa(dp100
g5
VQ8N1M1
p101
sg7
L144453L
sg8
VBEST3
p102
sa(dp103
g5
VP54289
p104
sg7
L781L
sg8
VCACNA2D1
p105
sa(dp106
g5
VQ8IZS8
p107
sg7
L55799L
sg8
VCACNA2D3
p108
sa(dp109
g5
VQ7Z3S7
p110
sg7
L93589L
sg8
VCACNA2D4
p111
sa(dp112
g5
VQ15878
p113
sg7
L777L
sg8
VCACNA1E
p114
sa(dp115
g5
VQ9P0X4
p116
sg7
L8911L
sg8
VCACNA1I
p117
sa(dp118
g5
VQ8NFU1
p119
sg7
L54831L
sg8
VBEST2
p120
sa(dp121
g5
VQ02641
p122
sg7
L782L
sg8
VCACNB1
p123
sa(dp124
g5
VQ08289
p125
sg7
L783L
sg8
VCACNB2
p126
sa(dp127
g5
VP54284
p128
sg7
L784L
sg8
VCACNB3
p129
sa(dp130
g5
VQ9HA72
p131
sg7
L51063L
sg8
VCALHM2
p132
sa(dp133
g5
VQ00975
p134
sg7
L774L
sg8
VCACNA1B
p135
sa(dp136
g5
VQ13936
p137
sg7
L775L
sg8
VCACNA1C
p138
sa(dp139
g5
VQ13698
p140
sg7
L779L
sg8
VCACNA1S
p141
sa(dp142
g5
VQ9NY47
p143
sg7
L9254L
sg8
VCACNA2D2
p144
sa(dp145
g5
VO00555
p146
sg7
L773L
sg8
VCACNA1A
p147
sa(dp148
g5
VQ9BXT2
p149
sg7
L59285L
sg8
VCACNG6
p150
sa(dp151
g5
VQ01668
p152
sg7
L776L
sg8
VCACNA1D
p153
sa(dp154
g5
VO60840
p155
sg7
L778L
sg8
VCACNA1F
p156
sa(dp157
g5
VO43497
p158
sg7
L8913L
sg8
VCACNA1G
p159
sa(dp160
g5
VO95180
p161
sg7
L8912L
sg8
VCACNA1H
p162
sa(dp163
g5
VO00305
p164
sg7
L785L
sg8
VCACNB4
p165
sa(dp166
g5
VQ8IU99
p167
sg7
L255022L
sg8
VCALHM1
p168
sa(dp169
g5
VQ06432
p170
sg7
L786L
sg8
VCACNG1
p171
sa(dp172
g5
VQ86XJ0
p173
sg7
L119395L
sg8
VCALHM3
p174
sa(dp175
g5
VQ9UF02
p176
sg7
L27091L
sg8
VCACNG5
p177
sa(dp178
g5
VQ8WXS4
p179
sg7
L140738L
sg8
VTMEM37
p180
sa(dp181
g5
VO60359
p182
sg7
L10368L
sg8
VCACNG3
p183
sa(dp184
g5
VP62955
p185
sg7
L59284L
sg8
VCACNG7
p186
sa(dp187
g5
VQ9UBN1
p188
sg7
L27092L
sg8
VCACNG4
p189
sa(dp190
g5
VQ9Y698
p191
sg7
L10369L
sg8
VCACNG2
p192
sa(dp193
g5
VQ8WXS5
p194
sg7
L59283L
sg8
VCACNG8
p195
sa(dp196
g5
VP51800
p197
sg7
L1187L
sg8
VCLCNKA
p198
sa(dp199
g5
VP51790
p200
sg7
L1182L
sg8
VCLCN3
p201
sa(dp202
g5
VQ96NY7
p203
sg7
L54102L
sg8
VCLIC6
p204
sa(dp205
g5
VP13569
p206
sg7
L1080L
sg8
VCFTR
p207
sa(dp208
g5
VP51788
p209
sg7
L1181L
sg8
VCLCN2
p210
sa(dp211
g5
VP51793
p212
sg7
L1183L
sg8
VCLCN4
p213
sa(dp214
g5
VO15247
p215
sg7
L1193L
sg8
VCLIC2
p216
sa(dp217
g5
VQ14CN2
p218
sg7
L22802L
sg8
VCLCA4
p219
sa(dp220
g5
VQ96S66
p221
sg7
L23155L
sg8
VCLCC1
p222
sa(dp223
g5
VP35523
p224
sg7
L1180L
sg8
VCLCN1
p225
sa(dp226
g5
VQ9Y696
p227
sg7
L25932L
sg8
VCLIC4
p228
sa(dp229
g5
VP29973
p230
sg7
L1259L
sg8
VCNGA1
p231
sa(dp232
g5
VQ16281
p233
sg7
L1261L
sg8
VCNGA3
p234
sa(dp235
g5
VQ14028
p236
sg7
L1258L
sg8
VCNGB1
p237
sa(dp238
g5
VQ9Y6N3
p239
sg7
L9629L
sg8
VCLCA3P
p240
sa(dp241
g5
VP51801
p242
sg7
L1188L
sg8
VCLCNKB
p243
sa(dp244
g5
VO00299
p245
sg7
L1192L
sg8
VCLIC1
p246
sa(dp247
g5
VA8K7I4
p248
sg7
L1179L
sg8
VCLCA1
p249
sa(dp250
g5
VQ8IV77
p251
sg7
L1262L
sg8
VCNGA4
p252
sa(dp253
g5
VP51797
p254
sg7
L1185L
sg8
VCLCN6
p255
sa(dp256
g5
VQ9NZA1
p257
sg7
L53405L
sg8
VCLIC5
p258
sa(dp259
g5
VQ9UQC9
p260
sg7
L9635L
sg8
VCLCA2
p261
sa(dp262
g5
VP51795
p263
sg7
L1184L
sg8
VCLCN5
p264
sa(dp265
g5
VP51798
p266
sg7
L1186L
sg8
VCLCN7
p267
sa(dp268
g5
VO95833
p269
sg7
L9022L
sg8
VCLIC3
p270
sa(dp271
g5
VQ16280
p272
sg7
L1260L
sg8
VCNGA2
p273
sa(dp274
g5
VQ9NQW8
p275
sg7
L54714L
sg8
VCNGB3
p276
sa(dp277
g5
VQ96D31
p278
sg7
L84876L
sg8
VORAI1
p279
sa(dp280
g5
VQ7RTX7
p281
sg7
L378807L
sg8
VCATSPER4
p282
sa(dp283
g5
VQ96P56
p284
sg7
L117155L
sg8
VCATSPER2
p285
sa(dp286
g5
VP04839
p287
sg7
L1536L
sg8
VCYBB
p288
sa(dp289
g5
VQ8NEC5
p290
sg7
L117144L
sg8
VCATSPER1
p291
sa(dp292
g5
VQ9Y2W7
p293
sg7
L30818L
sg8
VKCNIP3
p294
sa(dp295
g5
VQ86XQ3
p296
sg7
L347732L
sg8
VCATSPER3
p297
sa(dp298
g5
VQ5R3K3
p299
sg7
L441168L
sg8
VFAM26F
p300
sa(dp301
g5
VQ5JW98
p302
sg7
L221301L
sg8
VFAM26D
p303
sa(dp304
g5
VQ8N5C1
p305
sg7
L254228L
sg8
VFAM26E
p306
sa(dp307
g5
VQ14802
p308
sg7
L5349L
sg8
VFXYD3
p309
sa(dp310
g5
VQ9H0Q3
p311
sg7
L53826L
sg8
VFXYD6
p312
sa(dp313
g5
VQ96DB9
p314
sg7
L53827L
sg8
VFXYD5
p315
sa(dp316
g5
VP58549
p317
sg7
L53822L
sg8
VFXYD7
p318
sa(dp319
g5
VP58550
p320
sg7
L406875L
sg8
VFXYD6P3
p321
sa(dp322
g5
VP48169
p323
sg7
L2557L
sg8
VGABRA4
p324
sa(dp325
g5
VP28472
p326
sg7
L2562L
sg8
VGABRB3
p327
sa(dp328
g5
VP59646
p329
sg7
L53828L
sg8
VFXYD4
p330
sa(dp331
g5
VP14867
p332
sg7
L2554L
sg8
VGABRA1
p333
sa(dp334
g5
VP34903
p335
sg7
L2556L
sg8
VGABRA3
p336
sa(dp337
g5
VQ16445
p338
sg7
L2559L
sg8
VGABRA6
p339
sa(dp340
g5
VP78334
p341
sg7
L2564L
sg8
VGABRE
p342
sa(dp343
g5
VQ99928
p344
sg7
L2567L
sg8
VGABRG3
p345
sa(dp346
g5
VP28476
p347
sg7
L2570L
sg8
VGABRR2
p348
sa(dp349
g5
VQ9UN88
p350
sg7
L55879L
sg8
VGABRQ
p351
sa(dp352
g5
VA8MPY1
p353
sg7
L200959L
sg8
VGABRR3
p354
sa(dp355
g5
VP47869
p356
sg7
L2555L
sg8
VGABRA2
p357
sa(dp358
g5
VP18505
p359
sg7
L2560L
sg8
VGABRB1
p360
sa(dp361
g5
VO14764
p362
sg7
L2563L
sg8
VGABRD
p363
sa(dp364
g5
VQ8N1C3
p365
sg7
L2565L
sg8
VGABRG1
p366
sa(dp367
g5
VO00591
p368
sg7
L2568L
sg8
VGABRP
p369
sa(dp370
g5
VP31644
p371
sg7
L2558L
sg8
VGABRA5
p372
sa(dp373
g5
VP47870
p374
sg7
L2561L
sg8
VGABRB2
p375
sa(dp376
g5
VP18507
p377
sg7
L2566L
sg8
VGABRG2
p378
sa(dp379
g5
VP24046
p380
sg7
L2569L
sg8
VGABRR1
p381
sa(dp382
g5
VP23415
p383
sg7
L2741L
sg8
VGLRA1
p384
sa(dp385
g5
VP23416
p386
sg7
L2742L
sg8
VGLRA2
p387
sa(dp388
g5
VB7ZAQ6
p389
sg7
L653519L
sg8
VGPR89A
p390
sa(dp391
g5
VO75311
p392
sg7
L8001L
sg8
VGLRA3
p393
sa(dp394
g5
VP42263
p395
sg7
L2892L
sg8
VGRIA3
p396
sa(dp397
g5
VQ5JXX5
p398
sg7
L441509L
sg8
VGLRA4
p399
sa(dp400
g5
VP48167
p401
sg7
L2743L
sg8
VGLRB
p402
sa(dp403
g5
VP0CG08
p404
sg7
L653519L
sg8
VGPR89A
p405
sa(dp406
g5
VP42261
p407
sg7
L2890L
sg8
VGRIA1
p408
sa(dp409
g5
VP39086
p410
sg7
L2897L
sg8
VGRIK1
p411
sa(dp412
g5
VP42262
p413
sg7
L2891L
sg8
VGRIA2
p414
sa(dp415
g5
VQ9ULK0
p416
sg7
L2894L
sg8
VGRID1
p417
sa(dp418
g5
VQ13002
p419
sg7
L2898L
sg8
VGRIK2
p420
sa(dp421
g5
VQ13003
p422
sg7
L2899L
sg8
VGRIK3
p423
sa(dp424
g5
VP48058
p425
sg7
L2893L
sg8
VGRIA4
p426
sa(dp427
g5
VO43424
p428
sg7
L2895L
sg8
VGRID2
p429
sa(dp430
g5
VQ16099
p431
sg7
L2900L
sg8
VGRIK4
p432
sa(dp433
g5
VQ16478
p434
sg7
L2901L
sg8
VGRIK5
p435
sa(dp436
g5
VO60741
p437
sg7
L348980L
sg8
VHCN1
p438
sa(dp439
g5
VQ9UL51
p440
sg7
L610L
sg8
VHCN2
p441
sa(dp442
g5
VQ9Y3Q4
p443
sg7
L10021L
sg8
VHCN4
p444
sa(dp445
g5
VQ9P1Z3
p446
sg7
L57657L
sg8
VHCN3
p447
sa(dp448
g5
VQ96D96
p449
sg7
L84329L
sg8
VHVCN1
p450
sa(dp451
g5
VP78508
p452
sg7
L3766L
sg8
VKCNJ10
p453
sa(dp454
g5
VQ16558
p455
sg7
L3779L
sg8
VKCNMB1
p456
sa(dp457
g5
VQ9Y691
p458
sg7
L10242L
sg8
VKCNMB2
p459
sa(dp460
g5
VQ96PR1
p461
sg7
L3747L
sg8
VKCNC2
p462
sa(dp463
g5
VQ14003
p464
sg7
L3748L
sg8
VKCNC3
p465
sa(dp466
g5
VQ9NSA2
p467
sg7
L3750L
sg8
VKCND1
p468
sa(dp469
g5
VQ9NZV8
p470
sg7
L3751L
sg8
VKCND2
p471
sa(dp472
g5
VP15382
p473
sg7
L3753L
sg8
VKCNE1
p474
sa(dp475
g5
VQ9Y6J6
p476
sg7
L9992L
sg8
VKCNE2
p477
sa(dp478
g5
VO95259
p479
sg7
L3756L
sg8
VKCNH1
p480
sa(dp481
g5
VQ12809
p482
sg7
L3757L
sg8
VKCNH2
p483
sa(dp484
g5
VP48051
p485
sg7
L3763L
sg8
VKCNJ6
p486
sa(dp487
g5
VQ9NYG8
p488
sg7
L50801L
sg8
VKCNK4
p489
sa(dp490
g5
VQ9Y2U2
p491
sg7
L10089L
sg8
VKCNK7
p492
sa(dp493
g5
VQ9H427
p494
sg7
L60598L
sg8
VKCNK15
p495
sa(dp496
g5
VQ7Z418
p497
sg7
L338567L
sg8
VKCNK18
p498
sa(dp499
g5
VQ96KK3
p500
sg7
L3787L
sg8
VKCNS1
p501
sa(dp502
g5
VQ9ULS6
p503
sg7
L3788L
sg8
VKCNS2
p504
sa(dp505
g5
VQ6UVM3
p506
sg7
L343450L
sg8
VKCNT2
p507
sa(dp508
g5
VQ8TDN2
p509
sg7
L169522L
sg8
VKCNV2
p510
sa(dp511
g5
VQ14643
p512
sg7
L3708L
sg8
VITPR1
p513
sa(dp514
g5
VQ9NZI2
p515
sg7
L30820L
sg8
VKCNIP1
p516
sa(dp517
g5
VQ14654
p518
sg7
L3767L
sg8
VKCNJ11
p519
sa(dp520
g5
VQ99712
p521
sg7
L3772L
sg8
VKCNJ15
p522
sa(dp523
g5
VQ86W47
p524
sg7
L27345L
sg8
VKCNMB4
p525
sa(dp526
g5
VQ9ULD8
p527
sg7
L23416L
sg8
VKCNH3
p528
sa(dp529
g5
VP48544
p530
sg7
L3762L
sg8
VKCNJ5
p531
sa(dp532
g5
VQ15842
p533
sg7
L3764L
sg8
VKCNJ8
p534
sa(dp535
g5
VO14649
p536
sg7
L3777L
sg8
VKCNK3
p537
sa(dp538
g5
VQ96T55
p539
sg7
L83795L
sg8
VKCNK16
p540
sa(dp541
g5
VP51787
p542
sg7
L3784L
sg8
VKCNQ1
p543
sa(dp544
g5
VQ14571
p545
sg7
L3709L
sg8
VITPR2
p546
sa(dp547
g5
VQ14722
p548
sg7
L7881L
sg8
VKCNAB1
p549
sa(dp550
g5
VQ12791
p551
sg7
L3778L
sg8
VKCNMA1
p552
sa(dp553
g5
VQ8WWG9
p554
sg7
L23704L
sg8
VKCNE4
p555
sa(dp556
g5
VQ9H3M0
p557
sg7
L3754L
sg8
VKCNF1
p558
sa(dp559
g5
VQ9Y6H6
p560
sg7
L10008L
sg8
VKCNE3
p561
sa(dp562
g5
VQ9H252
p563
sg7
L81033L
sg8
VKCNH6
p564
sa(dp565
g5
VQ9NS40
p566
sg7
L90134L
sg8
VKCNH7
p567
sa(dp568
g5
VQ96L42
p569
sg7
L131096L
sg8
VKCNH8
p570
sa(dp571
g5
VP48549
p572
sg7
L3760L
sg8
VKCNJ3
p573
sa(dp574
g5
VO95069
p575
sg7
L3776L
sg8
VKCNK2
p576
sa(dp577
g5
VQ9HB15
p578
sg7
L56660L
sg8
VKCNK12
p579
sa(dp580
g5
VQ14573
p581
sg7
L3710L
sg8
VITPR3
p582
sa(dp583
g5
VQ9NPA1
p584
sg7
L27094L
sg8
VKCNMB3
p585
sa(dp586
g5
VQ09470
p587
sg7
L3736L
sg8
VKCNA1
p588
sa(dp589
g5
VP16389
p590
sg7
L3737L
sg8
VKCNA2
p591
sa(dp592
g5
VP22001
p593
sg7
L3738L
sg8
VKCNA3
p594
sa(dp595
g5
VP22459
p596
sg7
L3739L
sg8
VKCNA4
p597
sa(dp598
g5
VP22460
p599
sg7
L3741L
sg8
VKCNA5
p600
sa(dp601
g5
VP17658
p602
sg7
L3742L
sg8
VKCNA6
p603
sa(dp604
g5
VQ14721
p605
sg7
L3745L
sg8
VKCNB1
p606
sa(dp607
g5
VQ92953
p608
sg7
L9312L
sg8
VKCNB2
p609
sa(dp610
g5
VP48547
p611
sg7
L3746L
sg8
VKCNC1
p612
sa(dp613
g5
VQ9UIX4
p614
sg7
L3755L
sg8
VKCNG1
p615
sa(dp616
g5
VQ9UJ96
p617
sg7
L26251L
sg8
VKCNG2
p618
sa(dp619
g5
VO95279
p620
sg7
L8645L
sg8
VKCNK5
p621
sa(dp622
g5
VP57789
p623
sg7
L54207L
sg8
VKCNK10
p624
sa(dp625
g5
VQ92952
p626
sg7
L3780L
sg8
VKCNN1
p627
sa(dp628
g5
VQ9H2S1
p629
sg7
L3781L
sg8
VKCNN2
p630
sa(dp631
g5
VO15554
p632
sg7
L3783L
sg8
VKCNN4
p633
sa(dp634
g5
VO43526
p635
sg7
L3785L
sg8
VKCNQ2
p636
sa(dp637
g5
VA8MYU2
p638
sg7
L157855L
sg8
VKCNU1
p639
sa(dp640
g5
VQ13303
p641
sg7
L8514L
sg8
VKCNAB2
p642
sa(dp643
g5
VQ6PIL6
p644
sg7
L80333L
sg8
VKCNIP4
p645
sa(dp646
g5
VQ14500
p647
sg7
L3768L
sg8
VKCNJ12
p648
sa(dp649
g5
VO60928
p650
sg7
L3769L
sg8
VKCNJ13
p651
sa(dp652
g5
VQ9NPI9
p653
sg7
L3773L
sg8
VKCNJ16
p654
sa(dp655
g5
VQ03721
p656
sg7
L3749L
sg8
VKCNC4
p657
sa(dp658
g5
VQ9UK17
p659
sg7
L3752L
sg8
VKCND3
p660
sa(dp661
g5
VQ8TAE7
p662
sg7
L170850L
sg8
VKCNG3
p663
sa(dp664
g5
VQ9UQ05
p665
sg7
L23415L
sg8
VKCNH4
p666
sa(dp667
g5
VQ8NCM2
p668
sg7
L27133L
sg8
VKCNH5
p669
sa(dp670
g5
VP48048
p671
sg7
L3758L
sg8
VKCNJ1
p672
sa(dp673
g5
VO00180
p674
sg7
L3775L
sg8
VKCNK1
p675
sa(dp676
g5
VQ9NPC2
p677
sg7
L51305L
sg8
VKCNK9
p678
sa(dp679
g5
VQ9UGI6
p680
sg7
L3782L
sg8
VKCNN3
p681
sa(dp682
g5
VO43525
p683
sg7
L3786L
sg8
VKCNQ3
p684
sa(dp685
g5
VQ9BQ31
p686
sg7
L3790L
sg8
VKCNS3
p687
sa(dp688
g5
VO43448
p689
sg7
L9196L
sg8
VKCNAB3
p690
sa(dp691
g5
VQ8TDN1
p692
sg7
L93107L
sg8
VKCNG4
p693
sa(dp694
g5
VQ96RP8
p695
sg7
L3743L
sg8
VKCNA7
p696
sa(dp697
g5
VP63252
p698
sg7
L3759L
sg8
VKCNJ2
p699
sa(dp700
g5
VP48050
p701
sg7
L3761L
sg8
VKCNJ4
p702
sa(dp703
g5
VQ92806
p704
sg7
L3765L
sg8
VKCNJ9
p705
sa(dp706
g5
VQ9Y257
p707
sg7
L9424L
sg8
VKCNK6
p708
sa(dp709
g5
VQ9HB14
p710
sg7
L56659L
sg8
VKCNK13
p711
sa(dp712
g5
VQ96T54
p713
sg7
L89822L
sg8
VKCNK17
p714
sa(dp715
g5
VQ5JUK3
p716
sg7
L57582L
sg8
VKCNT1
p717
sa(dp718
g5
VQ16322
p719
sg7
L3744L
sg8
VKCNA10
p720
sa(dp721
g5
VQ9NS61
p722
sg7
L30819L
sg8
VKCNIP2
p723
sa(dp724
g5
VQ9UNX9
p725
sg7
L3770L
sg8
VKCNJ14
p726
sa(dp727
g5
VB7U540
p728
sg7
L100134444L
sg8
VKCNJ18
p729
sa(dp730
g5
VP56696
p731
sg7
L9132L
sg8
VKCNQ4
p732
sa(dp733
g5
VQ9NR82
p734
sg7
L56479L
sg8
VKCNQ5
p735
sa(dp736
g5
VQ6PIU1
p737
sg7
L27012L
sg8
VKCNV1
p738
sa(dp739
g5
VQ8N7C0
p740
sg7
L440699L
sg8
VLRRC52
p741
sa(dp742
g5
VQ6ZSA7
p743
sg7
L219527L
sg8
VLRRC55
p744
sa(dp745
g5
VQ8IZK6
p746
sg7
L255231L
sg8
VMCOLN2
p747
sa(dp748
g5
VQ2I0M4
p749
sg7
L389816L
sg8
VLRRC26
p750
sa(dp751
g5
VQ5VT99
p752
sg7
L126755L
sg8
VLRRC38
p753
sa(dp754
g5
VQ9GZU1
p755
sg7
L57192L
sg8
VMCOLN1
p756
sa(dp757
g5
VQ8NE86
p758
sg7
L90550L
sg8
VMCU
p759
sa(dp760
g5
VQ8TDD5
p761
sg7
L55283L
sg8
VMCOLN3
p762
sa(dp763
g5
VQ15049
p764
sg7
L23209L
sg8
VMLC1
p765
sa(dp766
g5
VQ8IZF0
p767
sg7
L259232L
sg8
VNALCN
p768
sa(dp769
g5
VO60391
p770
sg7
L116444L
sg8
VGRIN3B
p771
sa(dp772
g5
VQ8TCU5
p773
sg7
L116443L
sg8
VGRIN3A
p774
sa(dp775
g5
VQ9Y5S8
p776
sg7
L27035L
sg8
VNOX1
p777
sa(dp778
g5
VQ12879
p779
sg7
L2903L
sg8
VGRIN2A
p780
sa(dp781
g5
VQ14957
p782
sg7
L2905L
sg8
VGRIN2C
p783
sa(dp784
g5
VQ96PH1
p785
sg7
L79400L
sg8
VNOX5
p786
sa(dp787
g5
VQ13224
p788
sg7
L2904L
sg8
VGRIN2B
p789
sa(dp790
g5
VO15399
p791
sg7
L2906L
sg8
VGRIN2D
p792
sa(dp793
g5
VQ05586
p794
sg7
L2902L
sg8
VGRIN1
p795
sa(dp796
g5
VQ9UBL9
p797
sg7
L22953L
sg8
VP2RX2
p798
sa(dp799
g5
VP51575
p800
sg7
L5023L
sg8
VP2RX1
p801
sa(dp802
g5
VO15547
p803
sg7
L9127L
sg8
VP2RX6
p804
sa(dp805
g5
VP56373
p806
sg7
L5024L
sg8
VP2RX3
p807
sa(dp808
g5
VQ93086
p809
sg7
L5026L
sg8
VP2RX5
p810
sa(dp811
g5
VQ99572
p812
sg7
L5027L
sg8
VP2RX7
p813
sa(dp814
g5
VQ96QZ0
p815
sg7
L116337L
sg8
VPANX3
p816
sa(dp817
g5
VQ99571
p818
sg7
L5025L
sg8
VP2RX4
p819
sa(dp820
g5
VQ96RD7
p821
sg7
L24145L
sg8
VPANX1
p822
sa(dp823
g5
VQ96RD6
p824
sg7
L56666L
sg8
VPANX2
p825
sa(dp826
g5
VQ9H5I5
p827
sg7
L63895L
sg8
VPIEZO2
p828
sa(dp829
g5
VQ9Y342
p830
sg7
L51090L
sg8
VPLLP
p831
sa(dp832
g5
VQ7Z442
p833
sg7
L114780L
sg8
VPKD1L2
p834
sa(dp835
g5
VQ9P0L9
p836
sg7
L9033L
sg8
VPKD2L1
p837
sa(dp838
g5
VQ13563
p839
sg7
L5311L
sg8
VPKD2
p840
sa(dp841
g5
VQ92508
p842
sg7
L9780L
sg8
VPIEZO1
p843
sa(dp844
g5
VQ9NZM6
p845
sg7
L27039L
sg8
VPKD2L2
p846
sa(dp847
g5
VQ9NTG1
p848
sg7
L10343L
sg8
VPKDREJ
p849
sa(dp850
g5
VO00168
p851
sg7
L5348L
sg8
VFXYD1
p852
sa(dp853
g5
VQ7Z443
p854
sg7
L342372L
sg8
VPKD1L3
p855
sa(dp856
g5
VP21817
p857
sg7
L6261L
sg8
VRYR1
p858
sa(dp859
g5
VQ9BXS9
p860
sg7
L65010L
sg8
VSLC26A6
p861
sa(dp862
g5
VQ14524
p863
sg7
L6331L
sg8
VSCN5A
p864
sa(dp865
g5
VQ9Y5Y9
p866
sg7
L6336L
sg8
VSCN10A
p867
sa(dp868
g5
VQ99250
p869
sg7
L6326L
sg8
VSCN2A
p870
sa(dp871
g5
VQ92736
p872
sg7
L6262L
sg8
VRYR2
p873
sa(dp874
g5
VQ9H2B4
p875
sg7
L10861L
sg8
VSLC26A1
p876
sa(dp877
g5
VP35498
p878
sg7
L6323L
sg8
VSCN1A
p879
sa(dp880
g5
VP51170
p881
sg7
L6340L
sg8
VSCNN1G
p882
sa(dp883
g5
VQ15413
p884
sg7
L6263L
sg8
VRYR3
p885
sa(dp886
g5
VQ07699
p887
sg7
L6324L
sg8
VSCN1B
p888
sa(dp889
g5
VQ9NY72
p890
sg7
L55800L
sg8
VSCN3B
p891
sa(dp892
g5
VP35499
p893
sg7
L6329L
sg8
VSCN4A
p894
sa(dp895
g5
VQ01118
p896
sg7
L6332L
sg8
VSCN7A
p897
sa(dp898
g5
VQ9UQD0
p899
sg7
L6334L
sg8
VSCN8A
p900
sa(dp901
g5
VQ15858
p902
sg7
L6335L
sg8
VSCN9A
p903
sa(dp904
g5
VP37088
p905
sg7
L6337L
sg8
VSCNN1A
p906
sa(dp907
g5
VP51172
p908
sg7
L6339L
sg8
VSCNN1D
p909
sa(dp910
g5
VO60939
p911
sg7
L6327L
sg8
VSCN2B
p912
sa(dp913
g5
VQ9NY46
p914
sg7
L6328L
sg8
VSCN3A
p915
sa(dp916
g5
VQ9UI33
p917
sg7
L11280L
sg8
VSCN11A
p918
sa(dp919
g5
VQ8IWT1
p920
sg7
L6330L
sg8
VSCN4B
p921
sa(dp922
g5
VP51168
p923
sg7
L6338L
sg8
VSCNN1B
p924
sa(dp925
g5
VQ8TDI8
p926
sg7
L117531L
sg8
VTMC1
p927
sa(dp928
g5
VQ6UXY8
p929
sg7
L79838L
sg8
VTMC5
p930
sa(dp931
g5
VQ8IU68
p932
sg7
L147138L
sg8
VTMC8
p933
sa(dp934
g5
VQ7Z403
p935
sg7
L11322L
sg8
VTMC6
p936
sa(dp937
g5
VQ7Z402
p938
sg7
L79905L
sg8
VTMC7
p939
sa(dp940
g5
VQ9ULQ1
p941
sg7
L53373L
sg8
VTPCN1
p942
sa(dp943
g5
VQ9H6F2
p944
sg7
L79041L
sg8
VTMEM38A
p945
sa(dp946
g5
VQ9NVV0
p947
sg7
L55151L
sg8
VTMEM38B
p948
sa(dp949
g5
VQ8NHX9
p950
sg7
L219931L
sg8
VTPCN2
p951
sa(dp952
g5
VQ7Z5M5
p953
sg7
L342125L
sg8
VTMC3
p954
sa(dp955
g5
VQ7Z404
p956
sg7
L147798L
sg8
VTMC4
p957
sa(dp958
g5
VP48995
p959
sg7
L7220L
sg8
VTRPC1
p960
sa(dp961
g5
VQ8TDI7
p962
sg7
L117532L
sg8
VTMC2
p963
sa(dp964
g5
VQ9HCF6
p965
sg7
L80036L
sg8
VTRPM3
p966
sa(dp967
g5
VQ96QT4
p968
sg7
L54822L
sg8
VTRPM7
p969
sa(dp970
g5
VQ8NET8
p971
sg7
L162514L
sg8
VTRPV3
p972
sa(dp973
g5
VQ9HBA0
p974
sg7
L59341L
sg8
VTRPV4
p975
sa(dp976
g5
VQ9H1D0
p977
sg7
L55503L
sg8
VTRPV6
p978
sa(dp979
g5
VQ7Z4N2
p980
sg7
L4308L
sg8
VTRPM1
p981
sa(dp982
g5
VO94759
p983
sg7
L7226L
sg8
VTRPM2
p984
sa(dp985
g5
VQ9UBN4
p986
sg7
L7223L
sg8
VTRPC4
p987
sa(dp988
g5
VQ9Y210
p989
sg7
L7225L
sg8
VTRPC6
p990
sa(dp991
g5
VQ8NER1
p992
sg7
L7442L
sg8
VTRPV1
p993
sa(dp994
g5
VQ9NQA5
p995
sg7
L56302L
sg8
VTRPV5
p996
sa(dp997
g5
VQ9BSA4
p998
sg7
L94015L
sg8
VTTYH2
p999
sa(dp1000
g5
VQ9Y5S1
p1001
sg7
L51393L
sg8
VTRPV2
p1002
sa(dp1003
g5
VQ9C0H2
p1004
sg7
L80727L
sg8
VTTYH3
p1005
sa(dp1006
g5
VO75762
p1007
sg7
L8989L
sg8
VTRPA1
p1008
sa(dp1009
g5
VQ9UL62
p1010
sg7
L7224L
sg8
VTRPC5
p1011
sa(dp1012
g5
VQ9HCX4
p1013
sg7
L57113L
sg8
VTRPC7
p1014
sa(dp1015
g5
VQ9NZQ8
p1016
sg7
L29850L
sg8
VTRPM5
p1017
sa(dp1018
g5
VQ13507
p1019
sg7
L7222L
sg8
VTRPC3
p1020
sa(dp1021
g5
VQ8TD43
p1022
sg7
L54795L
sg8
VTRPM4
p1023
sa(dp1024
g5
VQ7Z2W7
p1025
sg7
L79054L
sg8
VTRPM8
p1026
sa(dp1027
g5
VQ9H313
p1028
sg7
L57348L
sg8
VTTYH1
p1029
sa(dp1030
g5
VQ401N2
p1031
sg7
L353174L
sg8
VZACN
p1032
sasS'GPCR'
p1033
(lp1034
(dp1035
g5
VP29275
p1036
sg7
L136L
sg8
VADORA2B
p1037
sa(dp1038
g5
VP28223
p1039
sg7
L3356L
sg8
VHTR2A
p1040
sa(dp1041
g5
VP34969
p1042
sg7
L3363L
sg8
VHTR7
p1043
sa(dp1044
g5
VP29274
p1045
sg7
L135L
sg8
VADORA2A
p1046
sa(dp1047
g5
VO00590
p1048
sg7
L1238L
sg8
VACKR2
p1049
sa(dp1050
g5
VP25106
p1051
sg7
L57007L
sg8
VACKR3
p1052
sa(dp1053
g5
VQ13639
p1054
sg7
L3360L
sg8
VHTR4
p1055
sa(dp1056
g5
VP30542
p1057
sg7
L134L
sg8
VADORA1
p1058
sa(dp1059
g5
VP08908
p1060
sg7
L3350L
sg8
VHTR1A
p1061
sa(dp1062
g5
VP28566
p1063
sg7
L3354L
sg8
VHTR1E
p1064
sa(dp1065
g5
VP41595
p1066
sg7
L3357L
sg8
VHTR2B
p1067
sa(dp1068
g5
VP28222
p1069
sg7
L3351L
sg8
VHTR1B
p1070
sa(dp1071
g5
VP47898
p1072
sg7
L3361L
sg8
VHTR5A
p1073
sa(dp1074
g5
VP50406
p1075
sg7
L3362L
sg8
VHTR6
p1076
sa(dp1077
g5
VP0DMS8
p1078
sg7
L140L
sg8
VADORA3
p1079
sa(dp1080
g5
VP11229
p1081
sg7
L1128L
sg8
VCHRM1
p1082
sa(dp1083
g5
VP08172
p1084
sg7
L1129L
sg8
VCHRM2
p1085
sa(dp1086
g5
VP20309
p1087
sg7
L1131L
sg8
VCHRM3
p1088
sa(dp1089
g5
VP08173
p1090
sg7
L1132L
sg8
VCHRM4
p1091
sa(dp1092
g5
VP35348
p1093
sg7
L148L
sg8
VADRA1A
p1094
sa(dp1095
g5
VQ16570
p1096
sg7
L2532L
sg8
VACKR1
p1097
sa(dp1098
g5
VP08913
p1099
sg7
L150L
sg8
VADRA2A
p1100
sa(dp1101
g5
VP28221
p1102
sg7
L3352L
sg8
VHTR1D
p1103
sa(dp1104
g5
VP30939
p1105
sg7
L3355L
sg8
VHTR1F
p1106
sa(dp1107
g5
VP28335
p1108
sg7
L3358L
sg8
VHTR2C
p1109
sa(dp1110
g5
VQ6QNK2
p1111
sg7
L283383L
sg8
VADGRD1
p1112
sa(dp1113
g5
VQ9UHX3
p1114
sg7
L30817L
sg8
VADGRE2
p1115
sa(dp1116
g5
VQ8IZF2
p1117
sg7
L221395L
sg8
VADGRF5
p1118
sa(dp1119
g5
VQ8IZF6
p1120
sg7
L139378L
sg8
VADGRG4
p1121
sa(dp1122
g5
VQ96K78
p1123
sg7
L84873L
sg8
VADGRG7
p1124
sa(dp1125
g5
VO95490
p1126
sg7
L23266L
sg8
VADGRL2
p1127
sa(dp1128
g5
VP30556
p1129
sg7
L185L
sg8
VAGTR1
p1130
sa(dp1131
g5
VO60241
p1132
sg7
L576L
sg8
VADGRB2
p1133
sa(dp1134
g5
VQ8IZF7
p1135
sg7
L222611L
sg8
VADGRF2
p1136
sa(dp1137
g5
VQ8IZF3
p1138
sg7
L221393L
sg8
VADGRF4
p1139
sa(dp1140
g5
VO94910
p1141
sg7
L22859L
sg8
VADGRL1
p1142
sa(dp1143
g5
VQ9NPB9
p1144
sg7
L51554L
sg8
VACKR4
p1145
sa(dp1146
g5
VP08912
p1147
sg7
L1133L
sg8
VCHRM5
p1148
sa(dp1149
g5
VQ01718
p1150
sg7
L4158L
sg8
VMC2R
p1151
sa(dp1152
g5
VP25100
p1153
sg7
L146L
sg8
VADRA1D
p1154
sa(dp1155
g5
VP18089
p1156
sg7
L151L
sg8
VADRA2B
p1157
sa(dp1158
g5
VP13945
p1159
sg7
L155L
sg8
VADRB3
p1160
sa(dp1161
g5
VQ5T601
p1162
sg7
L266977L
sg8
VADGRF1
p1163
sa(dp1164
g5
VQ86Y34
p1165
sg7
L222487L
sg8
VADGRG3
p1166
sa(dp1167
g5
VQ8IZF4
p1168
sg7
L221188L
sg8
VADGRG5
p1169
sa(dp1170
g5
VQ9HBW9
p1171
sg7
L64123L
sg8
VADGRL4
p1172
sa(dp1173
g5
VP18825
p1174
sg7
L152L
sg8
VADRA2C
p1175
sa(dp1176
g5
VQ7Z7M1
p1177
sg7
L347088L
sg8
VADGRD2
p1178
sa(dp1179
g5
VQ14246
p1180
sg7
L2015L
sg8
VADGRE1
p1181
sa(dp1182
g5
VQ9BY15
p1183
sg7
L84658L
sg8
VADGRE3
p1184
sa(dp1185
g5
VQ8IZF5
p1186
sg7
L165082L
sg8
VADGRF3
p1187
sa(dp1188
g5
VQ8IZP9
p1189
sg7
L10149L
sg8
VADGRG2
p1190
sa(dp1191
g5
VP50052
p1192
sg7
L186L
sg8
VAGTR2
p1193
sa(dp1194
g5
VP35368
p1195
sg7
L147L
sg8
VADRA1B
p1196
sa(dp1197
g5
VP08588
p1198
sg7
L153L
sg8
VADRB1
p1199
sa(dp1200
g5
VP07550
p1201
sg7
L154L
sg8
VADRB2
p1202
sa(dp1203
g5
VO60242
p1204
sg7
L577L
sg8
VADGRB3
p1205
sa(dp1206
g5
VQ86SQ6
p1207
sg7
L84435L
sg8
VADGRA1
p1208
sa(dp1209
g5
VQ8IWK6
p1210
sg7
L166647L
sg8
VADGRA3
p1211
sa(dp1212
g5
VQ86SQ3
p1213
sg7
L326342L
sg8
VADGRE4P
p1214
sa(dp1215
g5
VQ9HAR2
p1216
sg7
L23284L
sg8
VADGRL3
p1217
sa(dp1218
g5
VP35414
p1219
sg7
L187L
sg8
VAPLNR
p1220
sa(dp1221
g5
VO14514
p1222
sg7
L575L
sg8
VADGRB1
p1223
sa(dp1224
g5
VP32247
p1225
sg7
L680L
sg8
VBRS3
p1226
sa(dp1227
g5
VP30411
p1228
sg7
L624L
sg8
VBDKRB2
p1229
sa(dp1230
g5
VP30988
p1231
sg7
L799L
sg8
VCALCR
p1232
sa(dp1233
g5
VP46663
p1234
sg7
L623L
sg8
VBDKRB1
p1235
sa(dp1236
g5
VQ9P296
p1237
sg7
L27202L
sg8
VC5AR2
p1238
sa(dp1239
g5
VQ16581
p1240
sg7
L719L
sg8
VC3AR1
p1241
sa(dp1242
g5
VP41180
p1243
sg7
L846L
sg8
VCASR
p1244
sa(dp1245
g5
VP21730
p1246
sg7
L728L
sg8
VC5AR1
p1247
sa(dp1248
g5
VQ16602
p1249
sg7
L10203L
sg8
VCALCRL
p1250
sa(dp1251
g5
VP32246
p1252
sg7
L1230L
sg8
VCCR1
p1253
sa(dp1254
g5
VP41597
p1255
sg7
L729230L
sg8
VCCR2
p1256
sa(dp1257
g5
VP32238
p1258
sg7
L886L
sg8
VCCKAR
p1259
sa(dp1260
g5
VP46092
p1261
sg7
L2826L
sg8
VCCR10
p1262
sa(dp1263
g5
VQ9HCU4
p1264
sg7
L1952L
sg8
VCELSR2
p1265
sa(dp1266
g5
VP51681
p1267
sg7
L1234L
sg8
VCCR5
p1268
sa(dp1269
g5
VP51686
p1270
sg7
L10803L
sg8
VCCR9
p1271
sa(dp1272
g5
VP48960
p1273
sg7
L976L
sg8
VADGRE5
p1274
sa(dp1275
g5
VP32248
p1276
sg7
L1236L
sg8
VCCR7
p1277
sa(dp1278
g5
VO00421
p1279
sg7
L9034L
sg8
VCCRL2
p1280
sa(dp1281
g5
VP51677
p1282
sg7
L1232L
sg8
VCCR3
p1283
sa(dp1284
g5
VP51679
p1285
sg7
L1233L
sg8
VCCR4
p1286
sa(dp1287
g5
VP51685
p1288
sg7
L1237L
sg8
VCCR8
p1289
sa(dp1290
g5
VP51684
p1291
sg7
L1235L
sg8
VCCR6
p1292
sa(dp1293
g5
VQ9NYQ6
p1294
sg7
L9620L
sg8
VCELSR1
p1295
sa(dp1296
g5
VQ9NYQ7
p1297
sg7
L1951L
sg8
VCELSR3
p1298
sa(dp1299
g5
VQ9Y271
p1300
sg7
L10800L
sg8
VCYSLTR1
p1301
sa(dp1302
g5
VP34972
p1303
sg7
L1269L
sg8
VCNR2
p1304
sa(dp1305
g5
VQ9NS75
p1306
sg7
L57105L
sg8
VCYSLTR2
p1307
sa(dp1308
g5
VQ99788
p1309
sg7
L1240L
sg8
VCMKLR1
p1310
sa(dp1311
g5
VP21554
p1312
sg7
L1268L
sg8
VCNR1
p1313
sa(dp1314
g5
VP34998
p1315
sg7
L1394L
sg8
VCRHR1
p1316
sa(dp1317
g5
VQ13324
p1318
sg7
L1395L
sg8
VCRHR2
p1319
sa(dp1320
g5
VP32302
p1321
sg7
L643L
sg8
VCXCR5
p1322
sa(dp1323
g5
VP49238
p1324
sg7
L1524L
sg8
VCX3CR1
p1325
sa(dp1326
g5
VP25025
p1327
sg7
L3579L
sg8
VCXCR2
p1328
sa(dp1329
g5
VP61073
p1330
sg7
L7852L
sg8
VCXCR4
p1331
sa(dp1332
g5
VO00574
p1333
sg7
L10663L
sg8
VCXCR6
p1334
sa(dp1335
g5
VP25024
p1336
sg7
L3577L
sg8
VCXCR1
p1337
sa(dp1338
g5
VP49682
p1339
sg7
L2833L
sg8
VCXCR3
p1340
sa(dp1341
g5
VP14416
p1342
sg7
L1813L
sg8
VDRD2
p1343
sa(dp1344
g5
VP21918
p1345
sg7
L1816L
sg8
VDRD5
p1346
sa(dp1347
g5
VP21917
p1348
sg7
L1815L
sg8
VDRD4
p1349
sa(dp1350
g5
VP35462
p1351
sg7
L1814L
sg8
VDRD3
p1352
sa(dp1353
g5
VP25101
p1354
sg7
L1909L
sg8
VEDNRA
p1355
sa(dp1356
g5
VP21728
p1357
sg7
L1812L
sg8
VDRD1
p1358
sa(dp1359
g5
VP24530
p1360
sg7
L1910L
sg8
VEDNRB
p1361
sa(dp1362
g5
VO60883
p1363
sg7
L9283L
sg8
VGPR37L1
p1364
sa(dp1365
g5
VO14843
p1366
sg7
L2865L
sg8
VFFAR3
p1367
sa(dp1368
g5
VQ5NUL3
p1369
sg7
L338557L
sg8
VFFAR4
p1370
sa(dp1371
g5
VP21462
p1372
sg7
L2357L
sg8
VFPR1
p1373
sa(dp1374
g5
VP25090
p1375
sg7
L2358L
sg8
VFPR2
p1376
sa(dp1377
g5
VP23945
p1378
sg7
L2492L
sg8
VFSHR
p1379
sa(dp1380
g5
VO14842
p1381
sg7
L2864L
sg8
VFFAR1
p1382
sa(dp1383
g5
VO15552
p1384
sg7
L2867L
sg8
VFFAR2
p1385
sa(dp1386
g5
VO00144
p1387
sg7
L8326L
sg8
VFZD9
p1388
sa(dp1389
g5
VQ14332
p1390
sg7
L2535L
sg8
VFZD2
p1391
sa(dp1392
g5
VO60353
p1393
sg7
L8323L
sg8
VFZD6
p1394
sa(dp1395
g5
VO75899
p1396
sg7
L9568L
sg8
VGABBR2
p1397
sa(dp1398
g5
VO43603
p1399
sg7
L8811L
sg8
VGALR2
p1400
sa(dp1401
g5
VQ96N19
p1402
sg7
L56834L
sg8
VGPR137
p1403
sa(dp1404
g5
VP25089
p1405
sg7
L2359L
sg8
VFPR3
p1406
sa(dp1407
g5
VQ9UP38
p1408
sg7
L8321L
sg8
VFZD1
p1409
sa(dp1410
g5
VQ9ULV1
p1411
sg7
L8322L
sg8
VFZD4
p1412
sa(dp1413
g5
VO75084
p1414
sg7
L8324L
sg8
VFZD7
p1415
sa(dp1416
g5
VQ9UBS5
p1417
sg7
L2550L
sg8
VGABBR1
p1418
sa(dp1419
g5
VQ9ULW2
p1420
sg7
L11211L
sg8
VFZD10
p1421
sa(dp1422
g5
VQ9NPG1
p1423
sg7
L7976L
sg8
VFZD3
p1424
sa(dp1425
g5
VQ13467
p1426
sg7
L7855L
sg8
VFZD5
p1427
sa(dp1428
g5
VQ9H461
p1429
sg7
L8325L
sg8
VFZD8
p1430
sa(dp1431
g5
VQ8NGA4
p1432
sg7
L2855L
sg8
VGPR32P1
p1433
sa(dp1434
g5
VO60755
p1435
sg7
L8484L
sg8
VGALR3
p1436
sa(dp1437
g5
VP47211
p1438
sg7
L2587L
sg8
VGALR1
p1439
sa(dp1440
g5
VQ92847
p1441
sg7
L2693L
sg8
VGHSR
p1442
sa(dp1443
g5
VQ02643
p1444
sg7
L2692L
sg8
VGHRHR
p1445
sa(dp1446
g5
VP32239
p1447
sg7
L887L
sg8
VCCKBR
p1448
sa(dp1449
g5
VP43220
p1450
sg7
L2740L
sg8
VGLP1R
p1451
sa(dp1452
g5
VP47871
p1453
sg7
L2642L
sg8
VGCGR
p1454
sa(dp1455
g5
VQ6DWJ6
p1456
sg7
L124274L
sg8
VGPR139
p1457
sa(dp1458
g5
VQ86SP6
p1459
sg7
L344758L
sg8
VGPR149
p1460
sa(dp1461
g5
VO14626
p1462
sg7
L29909L
sg8
VGPR171
p1463
sa(dp1464
g5
VQ9BXC1
p1465
sg7
L84636L
sg8
VGPR174
p1466
sa(dp1467
g5
VQ5VW38
p1468
sg7
L57720L
sg8
VGPR107
p1469
sa(dp1470
g5
VQ96PE1
p1471
sg7
L25960L
sg8
VADGRA2
p1472
sa(dp1473
g5
VQ7Z601
p1474
sg7
L350383L
sg8
VGPR142
p1475
sa(dp1476
g5
VQ8TDV2
p1477
sg7
L344561L
sg8
VGPR148
p1478
sa(dp1479
g5
VQ8TDV0
p1480
sg7
L134391L
sg8
VGPR151
p1481
sa(dp1482
g5
VQ8NFN8
p1483
sg7
L165829L
sg8
VGPR156
p1484
sa(dp1485
g5
VQ8N6U8
p1486
sg7
L23432L
sg8
VGPR161
p1487
sa(dp1488
g5
VQ14439
p1489
sg7
L11245L
sg8
VGPR176
p1490
sa(dp1491
g5
VQ9NZD1
p1492
sg7
L55507L
sg8
VGPRC5D
p1493
sa(dp1494
g5
VQ5T6X5
p1495
sg7
L222545L
sg8
VGPRC6A
p1496
sa(dp1497
g5
VP48546
p1498
sg7
L2696L
sg8
VGIPR
p1499
sa(dp1500
g5
VQ6NV75
p1501
sg7
L387509L
sg8
VGPR153
p1502
sa(dp1503
g5
VQ5T848
p1504
sg7
L57512L
sg8
VGPR158
p1505
sa(dp1506
g5
VQ49SQ1
p1507
sg7
L2856L
sg8
VGPR33
p1508
sa(dp1509
g5
VO00155
p1510
sg7
L2848L
sg8
VGPR25
p1511
sa(dp1512
g5
VQ9Y5Y3
p1513
sg7
L11250L
sg8
VGPR45
p1514
sa(dp1515
g5
VQ9Y2T6
p1516
sg7
L9290L
sg8
VGPR55
p1517
sa(dp1518
g5
VO95800
p1519
sg7
L10936L
sg8
VGPR75
p1520
sa(dp1521
g5
VQ9NQS5
p1522
sg7
L53831L
sg8
VGPR84
p1523
sa(dp1524
g5
VQ9GZN0
p1525
sg7
L54112L
sg8
VGPR88
p1526
sa(dp1527
g5
VO95838
p1528
sg7
L9340L
sg8
VGLP2R
p1529
sa(dp1530
g5
VP30968
p1531
sg7
L2798L
sg8
VGNRHR
p1532
sa(dp1533
g5
VQ96P88
p1534
sg7
L114814L
sg8
VGNRHR2
p1535
sa(dp1536
g5
VQ8NGU9
p1537
sg7
L285601L
sg8
VGPR150
p1538
sa(dp1539
g5
VQ14330
p1540
sg7
L2841L
sg8
VGPR18
p1541
sa(dp1542
g5
VQ9BZJ7
p1543
sg7
L118442L
sg8
VGPR62
p1544
sa(dp1545
g5
VQ96P67
p1546
sg7
L27197L
sg8
VGPR82
p1547
sa(dp1548
g5
VQ9BY21
p1549
sg7
L53836L
sg8
VGPR87
p1550
sa(dp1551
g5
VQ8WXG9
p1552
sg7
L84059L
sg8
VADGRV1
p1553
sa(dp1554
g5
VQ96P66
p1555
sg7
L83550L
sg8
VGPR101
p1556
sa(dp1557
g5
VQ9NS66
p1558
sg7
L54328L
sg8
VGPR173
p1559
sa(dp1560
g5
VQ8TDU6
p1561
sg7
L151306L
sg8
VGPBAR1
p1562
sa(dp1563
g5
VQ9NQ84
p1564
sg7
L55890L
sg8
VGPRC5C
p1565
sa(dp1566
g5
VQ99527
p1567
sg7
L2852L
sg8
VGPER1
p1568
sa(dp1569
g5
VO75388
p1570
sg7
L2854L
sg8
VGPR32
p1571
sa(dp1572
g5
VQ9BZJ6
p1573
sg7
L81491L
sg8
VGPR63
p1574
sa(dp1575
g5
VQ9NZH0
p1576
sg7
L51704L
sg8
VGPRC5B
p1577
sa(dp1578
g5
VP47775
p1579
sg7
L2835L
sg8
VGPR12
p1580
sa(dp1581
g5
VO15354
p1582
sg7
L2861L
sg8
VGPR37
p1583
sa(dp1584
g5
VQ9Y653
p1585
sg7
L9289L
sg8
VADGRG1
p1586
sa(dp1587
g5
VQ86SQ4
p1588
sg7
L57211L
sg8
VADGRG6
p1589
sa(dp1590
g5
VQ8IZ08
p1591
sg7
L64582L
sg8
VGPR135
p1592
sa(dp1593
g5
VQ7Z602
p1594
sg7
L353345L
sg8
VGPR141
p1595
sa(dp1596
g5
VQ96CH1
p1597
sg7
L115330L
sg8
VGPR146
p1598
sa(dp1599
g5
VQ8TDT2
p1600
sg7
L390212L
sg8
VGPR152
p1601
sa(dp1602
g5
VQ5UAW9
p1603
sg7
L80045L
sg8
VGPR157
p1604
sa(dp1605
g5
VQ9UJ42
p1606
sg7
L26996L
sg8
VGPR160
p1607
sa(dp1608
g5
VQ6PRD1
p1609
sg7
L440435L
sg8
VGPR179
p1610
sa(dp1611
g5
VO15218
p1612
sg7
L11318L
sg8
VGPR182
p1613
sa(dp1614
g5
VP32249
p1615
sg7
L1880L
sg8
VGPR183
p1616
sa(dp1617
g5
VP46091
p1618
sg7
L2825L
sg8
VGPR1
p1619
sa(dp1620
g5
VQ9HC97
p1621
sg7
L2859L
sg8
VGPR35
p1622
sa(dp1623
g5
VO15529
p1624
sg7
L2866L
sg8
VGPR42
p1625
sa(dp1626
g5
VQ9Y2T5
p1627
sg7
L9293L
sg8
VGPR52
p1628
sa(dp1629
g5
VQ13255
p1630
sg7
L2911L
sg8
VGRM1
p1631
sa(dp1632
g5
VQ14416
p1633
sg7
L2912L
sg8
VGRM2
p1634
sa(dp1635
g5
VQ14831
p1636
sg7
L2917L
sg8
VGRM7
p1637
sa(dp1638
g5
VO00222
p1639
sg7
L2918L
sg8
VGRM8
p1640
sa(dp1641
g5
VP30550
p1642
sg7
L2925L
sg8
VGRPR
p1643
sa(dp1644
g5
VQ8TDV5
p1645
sg7
L139760L
sg8
VGPR119
p1646
sa(dp1647
g5
VQ9UNW8
p1648
sg7
L29933L
sg8
VGPR132
p1649
sa(dp1650
g5
VP51810
p1651
sg7
L4935L
sg8
VGPR143
p1652
sa(dp1653
g5
VQ16538
p1654
sg7
L27239L
sg8
VGPR162
p1655
sa(dp1656
g5
VQ13304
p1657
sg7
L2840L
sg8
VGPR17
p1658
sa(dp1659
g5
VQ8NDV2
p1660
sg7
L2849L
sg8
VGPR26
p1661
sa(dp1662
g5
VQ99679
p1663
sg7
L2844L
sg8
VGPR21
p1664
sa(dp1665
g5
VP46089
p1666
sg7
L2827L
sg8
VGPR3
p1667
sa(dp1668
g5
VQ9BZJ8
p1669
sg7
L83873L
sg8
VGPR61
p1670
sa(dp1671
g5
VP41594
p1672
sg7
L2915L
sg8
VGRM5
p1673
sa(dp1674
g5
VO15303
p1675
sg7
L2916L
sg8
VGRM6
p1676
sa(dp1677
g5
VP49685
p1678
sg7
L2838L
sg8
VGPR15
p1679
sa(dp1680
g5
VQ99678
p1681
sg7
L2843L
sg8
VGPR20
p1682
sa(dp1683
g5
VQ9NS67
p1684
sg7
L2850L
sg8
VGPR27
p1685
sa(dp1686
g5
VO00270
p1687
sg7
L2853L
sg8
VGPR31
p1688
sa(dp1689
g5
VQ9UPC5
p1690
sg7
L2857L
sg8
VGPR34
p1691
sa(dp1692
g5
VO43194
p1693
sg7
L2863L
sg8
VGPR39
p1694
sa(dp1695
g5
VP46093
p1696
sg7
L2828L
sg8
VGPR4
p1697
sa(dp1698
g5
VP46095
p1699
sg7
L2830L
sg8
VGPR6
p1700
sa(dp1701
g5
VQ96P69
p1702
sg7
L27201L
sg8
VGPR78
p1703
sa(dp1704
g5
VQ9NYM4
p1705
sg7
L10888L
sg8
VGPR83
p1706
sa(dp1707
g5
VP60893
p1708
sg7
L54329L
sg8
VGPR85
p1709
sa(dp1710
g5
VQ14832
p1711
sg7
L2913L
sg8
VGRM3
p1712
sa(dp1713
g5
VQ14833
p1714
sg7
L2914L
sg8
VGRM4
p1715
sa(dp1716
g5
VQ15760
p1717
sg7
L2842L
sg8
VGPR19
p1718
sa(dp1719
g5
VQ99680
p1720
sg7
L2845L
sg8
VGPR22
p1721
sa(dp1722
g5
VQ9BXC0
p1723
sg7
L27198L
sg8
VHCAR1
p1724
sa(dp1725
g5
VP49019
p1726
sg7
L8843L
sg8
VHCAR3
p1727
sa(dp1728
g5
VQ8TDS4
p1729
sg7
L338442L
sg8
VHCAR2
p1730
sa(dp1731
g5
VP25021
p1732
sg7
L3274L
sg8
VHRH2
p1733
sa(dp1734
g5
VQ9Y5N1
p1735
sg7
L11255L
sg8
VHRH3
p1736
sa(dp1737
g5
VQ9H3N8
p1738
sg7
L59340L
sg8
VHRH4
p1739
sa(dp1740
g5
VP35367
p1741
sg7
L3269L
sg8
VHRH1
p1742
sa(dp1743
g5
VQ969F8
p1744
sg7
L84634L
sg8
VKISS1R
p1745
sa(dp1746
g5
VQ9BXB1
p1747
sg7
L55366L
sg8
VLGR4
p1748
sa(dp1749
g5
VO75473
p1750
sg7
L8549L
sg8
VLGR5
p1751
sa(dp1752
g5
VQ92633
p1753
sg7
L1902L
sg8
VLPAR1
p1754
sa(dp1755
g5
VQ9HBX8
p1756
sg7
L59352L
sg8
VLGR6
p1757
sa(dp1758
g5
VQ9H1C0
p1759
sg7
L57121L
sg8
VLPAR5
p1760
sa(dp1761
g5
VQ9UBY5
p1762
sg7
L23566L
sg8
VLPAR3
p1763
sa(dp1764
g5
VQ9HBW0
p1765
sg7
L9170L
sg8
VLPAR2
p1766
sa(dp1767
g5
VQ99677
p1768
sg7
L2846L
sg8
VLPAR4
p1769
sa(dp1770
g5
VQ15722
p1771
sg7
L1241L
sg8
VLTB4R
p1772
sa(dp1773
g5
VP35410
p1774
sg7
L116511L
sg8
VMAS1L
p1775
sa(dp1776
g5
VP43657
p1777
sg7
L10161L
sg8
VLPAR6
p1778
sa(dp1779
g5
VP22888
p1780
sg7
L3973L
sg8
VLHCGR
p1781
sa(dp1782
g5
VQ969V1
p1783
sg7
L84539L
sg8
VMCHR2
p1784
sa(dp1785
g5
VP32245
p1786
sg7
L4160L
sg8
VMC4R
p1787
sa(dp1788
g5
VQ9NPC1
p1789
sg7
L56413L
sg8
VLTB4R2
p1790
sa(dp1791
g5
VP04201
p1792
sg7
L4142L
sg8
VMAS1
p1793
sa(dp1794
g5
VP41968
p1795
sg7
L4159L
sg8
VMC3R
p1796
sa(dp1797
g5
VQ99705
p1798
sg7
L2847L
sg8
VMCHR1
p1799
sa(dp1800
g5
VP33032
p1801
sg7
L4161L
sg8
VMC5R
p1802
sa(dp1803
g5
VQ96LA9
p1804
sg7
L117196L
sg8
VMRGPRX4
p1805
sa(dp1806
g5
VQ86SM5
p1807
sg7
L386746L
sg8
VMRGPRG
p1808
sa(dp1809
g5
VQ96AM1
p1810
sg7
L116535L
sg8
VMRGPRF
p1811
sa(dp1812
g5
VQ96LB2
p1813
sg7
L259249L
sg8
VMRGPRX1
p1814
sa(dp1815
g5
VQ96LB1
p1816
sg7
L117194L
sg8
VMRGPRX2
p1817
sa(dp1818
g5
VQ8TDS7
p1819
sg7
L116512L
sg8
VMRGPRD
p1820
sa(dp1821
g5
VP48039
p1822
sg7
L4543L
sg8
VMTNR1A
p1823
sa(dp1824
g5
VP49286
p1825
sg7
L4544L
sg8
VMTNR1B
p1826
sa(dp1827
g5
VQ01726
p1828
sg7
L4157L
sg8
VMC1R
p1829
sa(dp1830
g5
VQ86SM8
p1831
sg7
L116534L
sg8
VMRGPRE
p1832
sa(dp1833
g5
VQ96LB0
p1834
sg7
L117195L
sg8
VMRGPRX3
p1835
sa(dp1836
g5
VQ13585
p1837
sg7
L9248L
sg8
VGPR50
p1838
sa(dp1839
g5
VO43193
p1840
sg7
L2862L
sg8
VMLNR
p1841
sa(dp1842
g5
VP48145
p1843
sg7
L2831L
sg8
VNPBWR1
p1844
sa(dp1845
g5
VP48146
p1846
sg7
L2832L
sg8
VNPBWR2
p1847
sa(dp1848
g5
VP25929
p1849
sg7
L4886L
sg8
VNPY1R
p1850
sa(dp1851
g5
VQ99463
p1852
sg7
L4888L
sg8
VNPY6R
p1853
sa(dp1854
g5
VP29371
p1855
sg7
L6870L
sg8
VTACR3
p1856
sa(dp1857
g5
VP25103
p1858
sg7
L6869L
sg8
VTACR1
p1859
sa(dp1860
g5
VQ9HB89
p1861
sg7
L10316L
sg8
VNMUR1
p1862
sa(dp1863
g5
VQ9GZQ4
p1864
sg7
L56923L
sg8
VNMUR2
p1865
sa(dp1866
g5
VP50391
p1867
sg7
L5540L
sg8
VNPY4R
p1868
sa(dp1869
g5
VQ9Y5X5
p1870
sg7
L10886L
sg8
VNPFFR2
p1871
sa(dp1872
g5
VP30989
p1873
sg7
L4923L
sg8
VNTSR1
p1874
sa(dp1875
g5
VP28336
p1876
sg7
L4829L
sg8
VNMBR
p1877
sa(dp1878
g5
VQ9GZQ6
p1879
sg7
L64106L
sg8
VNPFFR1
p1880
sa(dp1881
g5
VQ6W5P4
p1882
sg7
L387129L
sg8
VNPSR1
p1883
sa(dp1884
g5
VP49146
p1885
sg7
L4887L
sg8
VNPY2R
p1886
sa(dp1887
g5
VP21452
p1888
sg7
L6865L
sg8
VTACR2
p1889
sa(dp1890
g5
VQ15761
p1891
sg7
L4889L
sg8
VNPY5R
p1892
sa(dp1893
g5
VQ15743
p1894
sg7
L8111L
sg8
VGPR68
p1895
sa(dp1896
g5
VO95665
p1897
sg7
L23620L
sg8
VNTSR2
p1898
sa(dp1899
g5
VQ9H1Y3
p1900
sg7
L23596L
sg8
VOPN3
p1901
sa(dp1902
g5
VP35372
p1903
sg7
L4988L
sg8
VOPRM1
p1904
sa(dp1905
g5
VP08100
p1906
sg7
L6010L
sg8
VRHO
p1907
sa(dp1908
g5
VO43614
p1909
sg7
L3062L
sg8
VHCRTR2
p1910
sa(dp1911
g5
VP41146
p1912
sg7
L4987L
sg8
VOPRL1
p1913
sa(dp1914
g5
VP03999
p1915
sg7
L611L
sg8
VOPN1SW
p1916
sa(dp1917
g5
VO43613
p1918
sg7
L3061L
sg8
VHCRTR1
p1919
sa(dp1920
g5
VQ9UHM6
p1921
sg7
L94233L
sg8
VOPN4
p1922
sa(dp1923
g5
VQ6U736
p1924
sg7
L221391L
sg8
VOPN5
p1925
sa(dp1926
g5
VP41143
p1927
sg7
L4985L
sg8
VOPRD1
p1928
sa(dp1929
g5
VP04001
p1930
sg7
L728458L
sg8
VOPN1MW2
p1931
sa(dp1932
g5
VQ96P68
p1933
sg7
L27199L
sg8
VOXGR1
p1934
sa(dp1935
g5
VO00398
p1936
sg7
L27334L
sg8
VP2RY10
p1937
sa(dp1938
g5
VQ8TDS5
p1939
sg7
L165140L
sg8
VOXER1
p1940
sa(dp1941
g5
VP41145
p1942
sg7
L4986L
sg8
VOPRK1
p1943
sa(dp1944
g5
VP04000
p1945
sg7
L5956L
sg8
VOPN1LW
p1946
sa(dp1947
g5
VO14718
p1948
sg7
L10692L
sg8
VRRH
p1949
sa(dp1950
g5
VP41231
p1951
sg7
L5029L
sg8
VP2RY2
p1952
sa(dp1953
g5
VQ15077
p1954
sg7
L5031L
sg8
VP2RY6
p1955
sa(dp1956
g5
VQ9BPV8
p1957
sg7
L53829L
sg8
VP2RY13
p1958
sa(dp1959
g5
VP41586
p1960
sg7
L117L
sg8
VADCYAP1R1
p1961
sa(dp1962
g5
VQ96RI0
p1963
sg7
L9002L
sg8
VF2RL3
p1964
sa(dp1965
g5
VP30559
p1966
sg7
L5021L
sg8
VOXTR
p1967
sa(dp1968
g5
VP51582
p1969
sg7
L5030L
sg8
VP2RY4
p1970
sa(dp1971
g5
VQ96G91
p1972
sg7
L5032L
sg8
VP2RY11
p1973
sa(dp1974
g5
VQ15391
p1975
sg7
L9934L
sg8
VP2RY14
p1976
sa(dp1977
g5
VP47900
p1978
sg7
L5028L
sg8
VP2RY1
p1979
sa(dp1980
g5
VQ86VZ1
p1981
sg7
L286530L
sg8
VP2RY8
p1982
sa(dp1983
g5
VQ9H244
p1984
sg7
L64805L
sg8
VP2RY12
p1985
sa(dp1986
g5
VP55085
p1987
sg7
L2150L
sg8
VF2RL1
p1988
sa(dp1989
g5
VP25116
p1990
sg7
L2149L
sg8
VF2R
p1991
sa(dp1992
g5
VP43115
p1993
sg7
L5733L
sg8
VPTGER3
p1994
sa(dp1995
g5
VO00254
p1996
sg7
L2151L
sg8
VF2RL2
p1997
sa(dp1998
g5
VP35408
p1999
sg7
L5734L
sg8
VPTGER4
p2000
sa(dp2001
g5
VP34995
p2002
sg7
L5731L
sg8
VPTGER1
p2003
sa(dp2004
g5
VQ9Y5Y4
p2005
sg7
L11251L
sg8
VPTGDR2
p2006
sa(dp2007
g5
VQ13258
p2008
sg7
L5729L
sg8
VPTGDR
p2009
sa(dp2010
g5
VP43116
p2011
sg7
L5732L
sg8
VPTGER2
p2012
sa(dp2013
g5
VP43119
p2014
sg7
L5739L
sg8
VPTGIR
p2015
sa(dp2016
g5
VQ8TCW9
p2017
sg7
L10887L
sg8
VPROKR1
p2018
sa(dp2019
g5
VP43088
p2020
sg7
L5737L
sg8
VPTGFR
p2021
sa(dp2022
g5
VQ8NFJ6
p2023
sg7
L128674L
sg8
VPROKR2
p2024
sa(dp2025
g5
VP49190
p2026
sg7
L5746L
sg8
VPTH2R
p2027
sa(dp2028
g5
VP49683
p2029
sg7
L2834L
sg8
VPRLHR
p2030
sa(dp2031
g5
VQ03431
p2032
sg7
L5745L
sg8
VPTH1R
p2033
sa(dp2034
g5
VQ8IYL9
p2035
sg7
L8477L
sg8
VGPR65
p2036
sa(dp2037
g5
VP25105
p2038
sg7
L5724L
sg8
VPTAFR
p2039
sa(dp2040
g5
VQ96P65
p2041
sg7
L84109L
sg8
VQRFPR
p2042
sa(dp2043
g5
VQ8NFJ5
p2044
sg7
L9052L
sg8
VGPRC5A
p2045
sa(dp2046
g5
VP47804
p2047
sg7
L5995L
sg8
VRGR
p2048
sa(dp2049
g5
VQ9NSD7
p2050
sg7
L51289L
sg8
VRXFP3
p2051
sa(dp2052
g5
VQ8TDU9
p2053
sg7
L339403L
sg8
VRXFP4
p2054
sa(dp2055
g5
VO95136
p2056
sg7
L9294L
sg8
VS1PR2
p2057
sa(dp2058
g5
VQ99500
p2059
sg7
L1903L
sg8
VS1PR3
p2060
sa(dp2061
g5
VO95977
p2062
sg7
L8698L
sg8
VS1PR4
p2063
sa(dp2064
g5
VQ8WXD0
p2065
sg7
L122042L
sg8
VRXFP2
p2066
sa(dp2067
g5
VQ9H228
p2068
sg7
L53637L
sg8
VS1PR5
p2069
sa(dp2070
g5
VP21453
p2071
sg7
L1901L
sg8
VS1PR1
p2072
sa(dp2073
g5
VQ9HBX9
p2074
sg7
L59350L
sg8
VRXFP1
p2075
sa(dp2076
g5
VP47872
p2077
sg7
L6344L
sg8
VSCTR
p2078
sa(dp2079
g5
VQ99835
p2080
sg7
L6608L
sg8
VSMO
p2081
sa(dp2082
g5
VP35346
p2083
sg7
L6755L
sg8
VSSTR5
p2084
sa(dp2085
g5
VP30872
p2086
sg7
L6751L
sg8
VSSTR1
p2087
sa(dp2088
g5
VP31391
p2089
sg7
L6754L
sg8
VSSTR4
p2090
sa(dp2091
g5
VP30874
p2092
sg7
L6752L
sg8
VSSTR2
p2093
sa(dp2094
g5
VP32745
p2095
sg7
L6753L
sg8
VSSTR3
p2096
sa(dp2097
g5
VQ9BXA5
p2098
sg7
L56670L
sg8
VSUCNR1
p2099
sa(dp2100
g5
VP59538
p2101
sg7
L259290L
sg8
VTAS2R31
p2102
sa(dp2103
g5
VQ9NYV8
p2104
sg7
L50840L
sg8
VTAS2R14
p2105
sa(dp2106
g5
VP59533
p2107
sg7
L5726L
sg8
VTAS2R38
p2108
sa(dp2109
g5
VQ96RJ0
p2110
sg7
L134864L
sg8
VTAAR1
p2111
sa(dp2112
g5
VQ9P1P4
p2113
sg7
L9288L
sg8
VTAAR3
p2114
sa(dp2115
g5
VQ96RI8
p2116
sg7
L319100L
sg8
VTAAR6
p2117
sa(dp2118
g5
VQ9NYW0
p2119
sg7
L50839L
sg8
VTAS2R10
p2120
sa(dp2121
g5
VP59536
p2122
sg7
L259287L
sg8
VTAS2R41
p2123
sa(dp2124
g5
VP59537
p2125
sg7
L259289L
sg8
VTAS2R43
p2126
sa(dp2127
g5
VP59544
p2128
sg7
L259296L
sg8
VTAS2R50
p2129
sa(dp2130
g5
VQ9P1P5
p2131
sg7
L9287L
sg8
VTAAR2
p2132
sa(dp2133
g5
VQ969N4
p2134
sg7
L83551L
sg8
VTAAR8
p2135
sa(dp2136
g5
VP59542
p2137
sg7
L259294L
sg8
VTAS2R19
p2138
sa(dp2139
g5
VQ9NYW3
p2140
sg7
L50837L
sg8
VTAS2R7
p2141
sa(dp2142
g5
VQ9NYW1
p2143
sg7
L50835L
sg8
VTAS2R9
p2144
sa(dp2145
g5
VQ9NYV9
p2146
sg7
L50838L
sg8
VTAS2R13
p2147
sa(dp2148
g5
VP59543
p2149
sg7
L259295L
sg8
VTAS2R20
p2150
sa(dp2151
g5
VP59535
p2152
sg7
L259286L
sg8
VTAS2R40
p2153
sa(dp2154
g5
VP59551
p2155
sg7
L338398L
sg8
VTAS2R60
p2156
sa(dp2157
g5
VQ9NYW6
p2158
sg7
L50831L
sg8
VTAS2R3
p2159
sa(dp2160
g5
VQ9NYW5
p2161
sg7
L50832L
sg8
VTAS2R4
p2162
sa(dp2163
g5
VQ9NYW4
p2164
sg7
L54429L
sg8
VTAS2R5
p2165
sa(dp2166
g5
VQ9NYV7
p2167
sg7
L50833L
sg8
VTAS2R16
p2168
sa(dp2169
g5
VQ9NYW2
p2170
sg7
L50836L
sg8
VTAS2R8
p2171
sa(dp2172
g5
VP21731
p2173
sg7
L6915L
sg8
VTBXA2R
p2174
sa(dp2175
g5
VO14804
p2176
sg7
L9038L
sg8
VTAAR5
p2177
sa(dp2178
g5
VQ96RI9
p2179
sg7
L134860L
sg8
VTAAR9
p2180
sa(dp2181
g5
VP59534
p2182
sg7
L259285L
sg8
VTAS2R39
p2183
sa(dp2184
g5
VQ9NYW7
p2185
sg7
L50834L
sg8
VTAS2R1
p2186
sa(dp2187
g5
VP59541
p2188
sg7
L259293L
sg8
VTAS2R30
p2189
sa(dp2190
g5
VQ7RTR8
p2191
sg7
L353164L
sg8
VTAS2R42
p2192
sa(dp2193
g5
VP59540
p2194
sg7
L259292L
sg8
VTAS2R46
p2195
sa(dp2196
g5
VQ86W33
p2197
sg7
L131601L
sg8
VTPRA1
p2198
sa(dp2199
g5
VQ7RTX1
p2200
sg7
L80835L
sg8
VTAS1R1
p2201
sa(dp2202
g5
VQ7RTX0
p2203
sg7
L83756L
sg8
VTAS1R3
p2204
sa(dp2205
g5
VP34981
p2206
sg7
L7201L
sg8
VTRHR
p2207
sa(dp2208
g5
VQ8TE23
p2209
sg7
L80834L
sg8
VTAS1R2
p2210
sa(dp2211
g5
VP16473
p2212
sg7
L7253L
sg8
VTSHR
p2213
sa(dp2214
g5
VQ9UKP6
p2215
sg7
L2837L
sg8
VUTS2R
p2216
sa(dp2217
g5
VP47901
p2218
sg7
L553L
sg8
VAVPR1B
p2219
sa(dp2220
g5
VP30518
p2221
sg7
L554L
sg8
VAVPR2
p2222
sa(dp2223
g5
VP32241
p2224
sg7
L7433L
sg8
VVIPR1
p2225
sa(dp2226
g5
VP41587
p2227
sg7
L7434L
sg8
VVIPR2
p2228
sa(dp2229
g5
VP37288
p2230
sg7
L552L
sg8
VAVPR1A
p2231
sa(dp2232
g5
VQ8TDU5
p2233
sg7
L441931L
sg8
VVN1R17P
p2234
sa(dp2235
g5
VQ9BXE9
p2236
sg7
L317702L
sg8
VVN1R3
p2237
sa(dp2238
g5
VQ7Z5H4
p2239
sg7
L317705L
sg8
VVN1R5
p2240
sa(dp2241
g5
VQ9GZP7
p2242
sg7
L57191L
sg8
VVN1R1
p2243
sa(dp2244
g5
VQ7Z5H5
p2245
sg7
L317703L
sg8
VVN1R4
p2246
sa(dp2247
g5
VP46094
p2248
sg7
L2829L
sg8
VXCR1
p2249
sa(dp2250
g5
VQ8NFZ6
p2251
sg7
L317701L
sg8
VVN1R2
p2252
sasS'NR'
p2253
(lp2254
(dp2255
g5
VP10275
p2256
sg7
L367L
sg8
VAR
p2257
sa(dp2258
g5
VP24468
p2259
sg7
L7026L
sg8
VNR2F2
p2260
sa(dp2261
g5
VP10589
p2262
sg7
L7025L
sg8
VNR2F1
p2263
sa(dp2264
g5
VP03372
p2265
sg7
L2099L
sg8
VESR1
p2266
sa(dp2267
g5
VP11474
p2268
sg7
L2101L
sg8
VESRRA
p2269
sa(dp2270
g5
VO95718
p2271
sg7
L2103L
sg8
VESRRB
p2272
sa(dp2273
g5
VP62508
p2274
sg7
L2104L
sg8
VESRRG
p2275
sa(dp2276
g5
VQ92731
p2277
sg7
L2100L
sg8
VESR2
p2278
sa(dp2279
g5
VP04150
p2280
sg7
L2908L
sg8
VNR3C1
p2281
sa(dp2282
g5
VQ14541
p2283
sg7
L3174L
sg8
VHNF4G
p2284
sa(dp2285
g5
VP41235
p2286
sg7
L3172L
sg8
VHNF4A
p2287
sa(dp2288
g5
VP08235
p2289
sg7
L4306L
sg8
VNR3C2
p2290
sa(dp2291
g5
VP20393
p2292
sg7
L9572L
sg8
VNR1D1
p2293
sa(dp2294
g5
VO75469
p2295
sg7
L8856L
sg8
VNR1I2
p2296
sa(dp2297
g5
VQ9Y5X4
p2298
sg7
L10002L
sg8
VNR2E3
p2299
sa(dp2300
g5
VQ14994
p2301
sg7
L9970L
sg8
VNR1I3
p2302
sa(dp2303
g5
VP13056
p2304
sg7
L7181L
sg8
VNR2C1
p2305
sa(dp2306
g5
VP49116
p2307
sg7
L7182L
sg8
VNR2C2
p2308
sa(dp2309
g5
VP43354
p2310
sg7
L4929L
sg8
VNR4A2
p2311
sa(dp2312
g5
VP10588
p2313
sg7
L2063L
sg8
VNR2F6
p2314
sa(dp2315
g5
VQ92570
p2316
sg7
L8013L
sg8
VNR4A3
p2317
sa(dp2318
g5
VQ15466
p2319
sg7
L8431L
sg8
VNR0B2
p2320
sa(dp2321
g5
VQ13133
p2322
sg7
L10062L
sg8
VNR1H3
p2323
sa(dp2324
g5
VQ14995
p2325
sg7
L9975L
sg8
VNR1D2
p2326
sa(dp2327
g5
VP22736
p2328
sg7
L3164L
sg8
VNR4A1
p2329
sa(dp2330
g5
VQ15406
p2331
sg7
L2649L
sg8
VNR6A1
p2332
sa(dp2333
g5
VP55055
p2334
sg7
L7376L
sg8
VNR1H2
p2335
sa(dp2336
g5
VQ96RI1
p2337
sg7
L9971L
sg8
VNR1H4
p2338
sa(dp2339
g5
VQ9Y466
p2340
sg7
L7101L
sg8
VNR2E1
p2341
sa(dp2342
g5
VO00482
p2343
sg7
L2494L
sg8
VNR5A2
p2344
sa(dp2345
g5
VP51843
p2346
sg7
L190L
sg8
VNR0B1
p2347
sa(dp2348
g5
VQ07869
p2349
sg7
L5465L
sg8
VPPARA
p2350
sa(dp2351
g5
VQ03181
p2352
sg7
L5467L
sg8
VPPARD
p2353
sa(dp2354
g5
VP37231
p2355
sg7
L5468L
sg8
VPPARG
p2356
sa(dp2357
g5
VP06401
p2358
sg7
L5241L
sg8
VPGR
p2359
sa(dp2360
g5
VP10826
p2361
sg7
L5915L
sg8
VRARB
p2362
sa(dp2363
g5
VP13631
p2364
sg7
L5916L
sg8
VRARG
p2365
sa(dp2366
g5
VP10276
p2367
sg7
L5914L
sg8
VRARA
p2368
sa(dp2369
g5
VP35398
p2370
sg7
L6095L
sg8
VRORA
p2371
sa(dp2372
g5
VQ92753
p2373
sg7
L6096L
sg8
VRORB
p2374
sa(dp2375
g5
VP28702
p2376
sg7
L6257L
sg8
VRXRB
p2377
sa(dp2378
g5
VP48443
p2379
sg7
L6258L
sg8
VRXRG
p2380
sa(dp2381
g5
VP19793
p2382
sg7
L6256L
sg8
VRXRA
p2383
sa(dp2384
g5
VQ13285
p2385
sg7
L2516L
sg8
VNR5A1
p2386
sa(dp2387
g5
VP10827
p2388
sg7
L7067L
sg8
VTHRA
p2389
sa(dp2390
g5
VP10828
p2391
sg7
L7068L
sg8
VTHRB
p2392
sa(dp2393
g5
VP11473
p2394
sg7
L7421L
sg8
VVDR
p2395
sa(dp2396
g5
VP51449
p2397
sg7
L6097L
sg8
VRORC
p2398
sasS'oGPCR'
p2399
(lp2400
(dp2401
g5
VP58181
p2402
sg7
L26496L
sg8
VOR10A3
p2403
sa(dp2404
g5
VQ8NH08
p2405
sg7
L392133L
sg8
VOR10AC1
p2406
sa(dp2407
g5
VQ96KK4
p2408
sg7
L442194L
sg8
VOR10C1
p2409
sa(dp2410
g5
VQ8NGN3
p2411
sg7
L390264L
sg8
VOR10G4
p2412
sa(dp2413
g5
VQ9Y4A9
p2414
sg7
L26539L
sg8
VOR10H1
p2415
sa(dp2416
g5
VQ8NGA6
p2417
sg7
L284433L
sg8
VOR10H5
p2418
sa(dp2419
g5
VQ5JRS4
p2420
sg7
L441911L
sg8
VOR10J3
p2421
sa(dp2422
g5
VQ8NGQ4
p2423
sg7
L219960L
sg8
VOR10Q1
p2424
sa(dp2425
g5
VQ8NGX3
p2426
sg7
L128360L
sg8
VOR10T2
p2427
sa(dp2428
g5
VQ9GZK7
p2429
sg7
L26531L
sg8
VOR11A1
p2430
sa(dp2431
g5
VQ8NGX0
p2432
sg7
L391189L
sg8
VOR11L1
p2433
sa(dp2434
g5
VQ9UGF7
p2435
sg7
L81797L
sg8
VOR12D3
p2436
sa(dp2437
g5
VQ8NGS7
p2438
sg7
L138802L
sg8
VOR13C8
p2439
sa(dp2440
g5
VQ8NGT2
p2441
sg7
L392309L
sg8
VOR13J1
p2442
sa(dp2443
g5
VQ8NHC5
p2444
sg7
L284532L
sg8
VOR14A16
p2445
sa(dp2446
g5
VA6ND48
p2447
sg7
L401994L
sg8
VOR14I1
p2448
sa(dp2449
g5
VQ9H205
p2450
sg7
L144125L
sg8
VOR2AG1
p2451
sa(dp2452
g5
VQ8NG84
p2453
sg7
L391191L
sg8
VOR2AK2
p2454
sa(dp2455
g5
VQ8NH01
p2456
sg7
L127077L
sg8
VOR2T11
p2457
sa(dp2458
g5
VQ8NH02
p2459
sg7
L343563L
sg8
VOR2T29
p2460
sa(dp2461
g5
VQ8NGX2
p2462
sg7
L403244L
sg8
VOR2T35
p2463
sa(dp2464
g5
VQ6IF82
p2465
sg7
L403253L
sg8
VOR4A47
p2466
sa(dp2467
g5
VQ9H339
p2468
sg7
L282763L
sg8
VOR51B5
p2469
sa(dp2470
g5
VQ8NGK0
p2471
sg7
L81282L
sg8
VOR51G2
p2472
sa(dp2473
g5
VQ9H342
p2474
sg7
L79470L
sg8
VOR51J1
p2475
sa(dp2476
g5
VQ8NGJ8
p2477
sg7
L119692L
sg8
VOR51S1
p2478
sa(dp2479
g5
VA6NMU1
p2480
sg7
L390053L
sg8
VOR52A4P
p2481
sa(dp2482
g5
VQ96RD2
p2483
sg7
L255725L
sg8
VOR52B2
p2484
sa(dp2485
g5
VQ9H346
p2486
sg7
L390066L
sg8
VOR52D1
p2487
sa(dp2488
g5
VQ96RD3
p2489
sg7
L390078L
sg8
VOR52E6
p2490
sa(dp2491
g5
VQ8NH67
p2492
sg7
L143502L
sg8
VOR52I2
p2493
sa(dp2494
g5
VQ8NGK3
p2495
sg7
L119774L
sg8
VOR52K2
p2496
sa(dp2497
g5
VQ8NH57
p2498
sg7
L81248L
sg8
VOR52P1P
p2499
sa(dp2500
g5
VQ6IF63
p2501
sg7
L120787L
sg8
VOR52W1
p2502
sa(dp2503
g5
VQ8NH54
p2504
sg7
L390083L
sg8
VOR56A3
p2505
sa(dp2506
g5
VQ8NGI3
p2507
sg7
L387748L
sg8
VOR56B1
p2508
sa(dp2509
g5
VA6NL08
p2510
sg7
L390323L
sg8
VOR6C75
p2511
sa(dp2512
g5
VQ9H207
p2513
sg7
L144124L
sg8
VOR10A5
p2514
sa(dp2515
g5
VQ8NGE0
p2516
sg7
L121275L
sg8
VOR10AD1
p2517
sa(dp2518
g5
VQ8NGN7
p2519
sg7
L390266L
sg8
VOR10D4P
p2520
sa(dp2521
g5
VQ8NGC3
p2522
sg7
L26534L
sg8
VOR10G2
p2523
sa(dp2524
g5
VO60403
p2525
sg7
L26538L
sg8
VOR10H2
p2526
sa(dp2527
g5
VQ8NHC4
p2528
sg7
L127385L
sg8
VOR10J5
p2529
sa(dp2530
g5
VQ8NGC7
p2531
sg7
L122748L
sg8
VOR11H6
p2532
sa(dp2533
g5
VB2RN74
p2534
sg7
L440153L
sg8
VOR11H12
p2535
sa(dp2536
g5
VP58182
p2537
sg7
L26529L
sg8
VOR12D2
p2538
sa(dp2539
g5
VQ8NGS5
p2540
sg7
L138804L
sg8
VOR13C4
p2541
sa(dp2542
g5
VA4D2G3
p2543
sg7
L392138L
sg8
VOR2A25
p2544
sa(dp2545
g5
VQ6IFN5
p2546
sg7
L26648L
sg8
VOR7E24
p2547
sa(dp2548
g5
VQ8NGE5
p2549
sg7
L121364L
sg8
VOR10A7
p2550
sa(dp2551
g5
VQ8NH80
p2552
sg7
L26497L
sg8
VOR10D3
p2553
sa(dp2554
g5
VQ8NGC4
p2555
sg7
L26533L
sg8
VOR10G3
p2556
sa(dp2557
g5
VQ8NGN4
p2558
sg7
L219870L
sg8
VOR10G9
p2559
sa(dp2560
g5
VQ8NGA5
p2561
sg7
L126541L
sg8
VOR10H4
p2562
sa(dp2563
g5
VP30954
p2564
sg7
L26476L
sg8
VOR10J1
p2565
sa(dp2566
g5
VQ8NGY7
p2567
sg7
L401973L
sg8
VOR10J6P
p2568
sa(dp2569
g5
VQ8NGE3
p2570
sg7
L121130L
sg8
VOR10P1
p2571
sa(dp2572
g5
VQ8NGN2
p2573
sg7
L219873L
sg8
VOR10S1
p2574
sa(dp2575
g5
VQ8NGI7
p2576
sg7
L390201L
sg8
VOR10V1
p2577
sa(dp2578
g5
VQ8NGY1
p2579
sg7
L128368L
sg8
VOR10Z1
p2580
sa(dp2581
g5
VQ8NG94
p2582
sg7
L81061L
sg8
VOR11H1
p2583
sa(dp2584
g5
VQ8NGR1
p2585
sg7
L79290L
sg8
VOR13A1
p2586
sa(dp2587
g5
VQ8NGT0
p2588
sg7
L286362L
sg8
VOR13C9
p2589
sa(dp2590
g5
VQ8NGS4
p2591
sg7
L138805L
sg8
VOR13F1
p2592
sa(dp2593
g5
VQ96R54
p2594
sg7
L388761L
sg8
VOR14A2
p2595
sa(dp2596
g5
VQ9UGF5
p2597
sg7
L442191L
sg8
VOR14J1
p2598
sa(dp2599
g5
VQ9H208
p2600
sg7
L341276L
sg8
VOR10A2
p2601
sa(dp2602
g5
VQ9H209
p2603
sg7
L283297L
sg8
VOR10A4
p2604
sa(dp2605
g5
VQ8NH19
p2606
sg7
L282770L
sg8
VOR10AG1
p2607
sa(dp2608
g5
VQ8NH81
p2609
sg7
L79490L
sg8
VOR10G6
p2610
sa(dp2611
g5
VQ8NGN5
p2612
sg7
L219869L
sg8
VOR10G8
p2613
sa(dp2614
g5
VQ6IF99
p2615
sg7
L391107L
sg8
VOR10K2
p2616
sa(dp2617
g5
VQ8NGX6
p2618
sg7
L343406L
sg8
VOR10R2
p2619
sa(dp2620
g5
VQ8NGF6
p2621
sg7
L81341L
sg8
VOR10W1
p2622
sa(dp2623
g5
VQ8NH07
p2624
sg7
L79334L
sg8
VOR11H2
p2625
sa(dp2626
g5
VQ8NGS9
p2627
sg7
L392376L
sg8
VOR13C2
p2628
sa(dp2629
g5
VQ8NH95
p2630
sg7
L392311L
sg8
VOR13C6P
p2631
sa(dp2632
g5
VQ8NGV5
p2633
sg7
L286365L
sg8
VOR13D1
p2634
sa(dp2635
g5
VQ8NG92
p2636
sg7
L347468L
sg8
VOR13H1
p2637
sa(dp2638
g5
VQ8NHC6
p2639
sg7
L127617L
sg8
VOR14L1P
p2640
sa(dp2641
g5
VQ8NGT7
p2642
sg7
L346525L
sg8
VOR2A12
p2643
sa(dp2644
g5
VQ8NHA4
p2645
sg7
L81392L
sg8
VOR2AE1
p2646
sa(dp2647
g5
VQ8NGE2
p2648
sg7
L121129L
sg8
VOR2AP1
p2649
sa(dp2650
g5
VQ8NGZ9
p2651
sg7
L127069L
sg8
VOR2T10
p2652
sa(dp2653
g5
VQ8NH04
p2654
sg7
L403239L
sg8
VOR2T27
p2655
sa(dp2656
g5
VQ8NG76
p2657
sg7
L391195L
sg8
VOR2T33
p2658
sa(dp2659
g5
VQ8NGJ7
p2660
sg7
L401667L
sg8
VOR51A2
p2661
sa(dp2662
g5
VQ8NH64
p2663
sg7
L119687L
sg8
VOR51A7
p2664
sa(dp2665
g5
VQ9H340
p2666
sg7
L390058L
sg8
VOR51B6
p2667
sa(dp2668
g5
VQ9H344
p2669
sg7
L390064L
sg8
VOR51I2
p2670
sa(dp2671
g5
VQ9H341
p2672
sg7
L390059L
sg8
VOR51M1
p2673
sa(dp2674
g5
VQ8NGJ9
p2675
sg7
L401665L
sg8
VOR51T1
p2676
sa(dp2677
g5
VQ9UKL2
p2678
sg7
L23538L
sg8
VOR52A1
p2679
sa(dp2680
g5
VQ8NGK2
p2681
sg7
L143496L
sg8
VOR52B4
p2682
sa(dp2683
g5
VQ6IFG1
p2684
sg7
L390079L
sg8
VOR52E8
p2685
sa(dp2686
g5
VQ8NH60
p2687
sg7
L119679L
sg8
VOR52J3
p2688
sa(dp2689
g5
VQ8NGH7
p2690
sg7
L338751L
sg8
VOR52L1
p2691
sa(dp2692
g5
VQ8NGI0
p2693
sg7
L390077L
sg8
VOR52N2
p2694
sa(dp2695
g5
VP0C646
p2696
sg7
L283110L
sg8
VOR52Z1
p2697
sa(dp2698
g5
VP0C7T3
p2699
sg7
L390084L
sg8
VOR56A5
p2700
sa(dp2701
g5
VP0C628
p2702
sg7
L81431L
sg8
VOR5AC1
p2703
sa(dp2704
g5
VQ8NH90
p2705
sg7
L390181L
sg8
VOR5AK2
p2706
sa(dp2707
g5
VP0C617
p2708
sg7
L79482L
sg8
VOR5AL1
p2709
sa(dp2710
g5
VQ8NGI8
p2711
sg7
L390195L
sg8
VOR5AN1
p2712
sa(dp2713
g5
VQ8NGC0
p2714
sg7
L390445L
sg8
VOR5AU1
p2715
sa(dp2716
g5
VA6NIJ9
p2717
sg7
L390327L
sg8
VOR6C70
p2718
sa(dp2719
g5
VQ9Y585
p2720
sg7
L26189L
sg8
VOR1A2
p2721
sa(dp2722
g5
VO43749
p2723
sg7
L4992L
sg8
VOR1F1
p2724
sa(dp2725
g5
VP47890
p2726
sg7
L8390L
sg8
VOR1G1
p2727
sa(dp2728
g5
VQ5JQS5
p2729
sg7
L127623L
sg8
VOR2B11
p2730
sa(dp2731
g5
VQ5TZ20
p2732
sg7
L391211L
sg8
VOR2G6
p2733
sa(dp2734
g5
VO95918
p2735
sg7
L7932L
sg8
VOR2H2
p2736
sa(dp2737
g5
VQ8NG85
p2738
sg7
L391192L
sg8
VOR2L3
p2739
sa(dp2740
g5
VO43869
p2741
sg7
L26696L
sg8
VOR2T1
p2742
sa(dp2743
g5
VQ6IEZ7
p2744
sg7
L401993L
sg8
VOR2T5
p2745
sa(dp2746
g5
VA6NH00
p2747
sg7
L343172L
sg8
VOR2T8
p2748
sa(dp2749
g5
VQ8NHA6
p2750
sg7
L81406L
sg8
VOR2W6P
p2751
sa(dp2752
g5
VQ8NG97
p2753
sg7
L284383L
sg8
VOR2Z1
p2754
sa(dp2755
g5
VP47888
p2756
sg7
L8392L
sg8
VOR3A3
p2757
sa(dp2758
g5
VQ8NH83
p2759
sg7
L81318L
sg8
VOR4A5
p2760
sa(dp2761
g5
VQ8NH72
p2762
sg7
L219432L
sg8
VOR4C6
p2763
sa(dp2764
g5
VQ8NGP0
p2765
sg7
L283092L
sg8
VOR4C13
p2766
sa(dp2767
g5
VQ8NGN0
p2768
sg7
L219875L
sg8
VOR4D5
p2769
sa(dp2770
g5
VQ8NGI6
p2771
sg7
L390197L
sg8
VOR4D10
p2772
sa(dp2773
g5
VQ8NGC2
p2774
sg7
L26686L
sg8
VOR4E2
p2775
sa(dp2776
g5
VQ6IEY1
p2777
sg7
L81399L
sg8
VOR4F16
p2778
sa(dp2779
g5
VQ8NGB9
p2780
sg7
L390648L
sg8
VOR4F6
p2781
sa(dp2782
g5
VQ8NGD2
p2783
sg7
L390431L
sg8
VOR4K2
p2784
sa(dp2785
g5
VQ8NGD3
p2786
sg7
L79317L
sg8
VOR4K5
p2787
sa(dp2788
g5
VQ8NH41
p2789
sg7
L81127L
sg8
VOR4K15
p2790
sa(dp2791
g5
VQ8NH43
p2792
sg7
L122742L
sg8
VOR4L1
p2793
sa(dp2794
g5
VQ8NGB6
p2795
sg7
L390538L
sg8
VOR4M2
p2796
sa(dp2797
g5
VP0C623
p2798
sg7
L390432L
sg8
VOR4Q2
p2799
sa(dp2800
g5
VQ8NGF9
p2801
sg7
L119764L
sg8
VOR4X2
p2802
sa(dp2803
g5
VQ96R08
p2804
sg7
L390191L
sg8
VOR5B12
p2805
sa(dp2806
g5
VO95221
p2807
sg7
L338674L
sg8
VOR5F1
p2808
sa(dp2809
g5
VQ8NGV7
p2810
sg7
L79310L
sg8
VOR5H2
p2811
sa(dp2812
g5
VA6NET4
p2813
sg7
L403277L
sg8
VOR5K3
p2814
sa(dp2815
g5
VQ8NGP8
p2816
sg7
L390168L
sg8
VOR5M1
p2817
sa(dp2818
g5
VQ8NGP6
p2819
sg7
L219484L
sg8
VOR5M8
p2820
sa(dp2821
g5
VQ96RB7
p2822
sg7
L219487L
sg8
VOR5M11
p2823
sa(dp2824
g5
VQ8NG75
p2825
sg7
L390155L
sg8
VOR5T1
p2826
sa(dp2827
g5
VQ9UGF6
p2828
sg7
L81696L
sg8
VOR5V1
p2829
sa(dp2830
g5
VO95007
p2831
sg7
L135946L
sg8
VOR6B1
p2832
sa(dp2833
g5
VA6NF89
p2834
sg7
L283365L
sg8
VOR6C6
p2835
sa(dp2836
g5
VO14581
p2837
sg7
L26333L
sg8
VOR7A17
p2838
sa(dp2839
g5
VQ96RA2
p2840
sg7
L162998L
sg8
VOR7D2
p2841
sa(dp2842
g5
VQ96RD0
p2843
sg7
L26595L
sg8
VOR8B2
p2844
sa(dp2845
g5
VQ8WZ84
p2846
sg7
L283159L
sg8
VOR8D1
p2847
sa(dp2848
g5
VQ6IF36
p2849
sg7
L26492L
sg8
VOR8G2
p2850
sa(dp2851
g5
VQ8NGG4
p2852
sg7
L219469L
sg8
VOR8H1
p2853
sa(dp2854
g5
VQ8N146
p2855
sg7
L390152L
sg8
VOR8H3
p2856
sa(dp2857
g5
VQ8NGP2
p2858
sg7
L219477L
sg8
VOR8J1
p2859
sa(dp2860
g5
VQ8NH09
p2861
sg7
L341568L
sg8
VOR8S1
p2862
sa(dp2863
g5
VQ8NHC7
p2864
sg7
L127066L
sg8
VOR14C36
p2865
sa(dp2866
g5
VQ8NGZ2
p2867
sg7
L343170L
sg8
VOR14K1
p2868
sa(dp2869
g5
VQ8NH70
p2870
sg7
L81327L
sg8
VOR4A16
p2871
sa(dp2872
g5
VQ8NGA8
p2873
sg7
L81099L
sg8
VOR4F17
p2874
sa(dp2875
g5
VA6NGY5
p2876
sg7
L256892L
sg8
VOR51F1
p2877
sa(dp2878
g5
VA6NM76
p2879
sg7
L390326L
sg8
VOR6C76
p2880
sa(dp2881
g5
VQ8NH94
p2882
sg7
L26737L
sg8
VOR1L1
p2883
sa(dp2884
g5
VQ8NGR8
p2885
sg7
L138881L
sg8
VOR1L8
p2886
sa(dp2887
g5
VQ15612
p2888
sg7
L158131L
sg8
VOR1Q1
p2889
sa(dp2890
g5
VO95047
p2891
sg7
L79541L
sg8
VOR2A4
p2892
sa(dp2893
g5
VQ9GZK3
p2894
sg7
L81697L
sg8
VOR2B2
p2895
sa(dp2896
g5
VQ8N628
p2897
sg7
L81472L
sg8
VOR2C3
p2898
sa(dp2899
g5
VQ8NGZ4
p2900
sg7
L81469L
sg8
VOR2G3
p2901
sa(dp2902
g5
VQ9GZK4
p2903
sg7
L26716L
sg8
VOR2H1
p2904
sa(dp2905
g5
VQ8NGT1
p2906
sg7
L26248L
sg8
VOR2K2
p2907
sa(dp2908
g5
VQ8N349
p2909
sg7
L284521L
sg8
VOR2L13
p2910
sa(dp2911
g5
VQ96R27
p2912
sg7
L26245L
sg8
VOR2M4
p2913
sa(dp2914
g5
VQ9NQN1
p2915
sg7
L56656L
sg8
VOR2S2
p2916
sa(dp2917
g5
VQ8NH00
p2918
sg7
L127074L
sg8
VOR2T4
p2919
sa(dp2920
g5
VP0C7T2
p2921
sg7
L81458L
sg8
VOR2T7
p2922
sa(dp2923
g5
VQ9Y3N9
p2924
sg7
L26692L
sg8
VOR2W1
p2925
sa(dp2926
g5
VQ8NGN8
p2927
sg7
L390134L
sg8
VOR4A4P
p2928
sa(dp2929
g5
VQ8NGF8
p2930
sg7
L119765L
sg8
VOR4B1
p2931
sa(dp2932
g5
VQ15615
p2933
sg7
L26689L
sg8
VOR4D1
p2934
sa(dp2935
g5
VQ8NGJ1
p2936
sg7
L219983L
sg8
VOR4D6
p2937
sa(dp2938
g5
VQ8NGI4
p2939
sg7
L219986L
sg8
VOR4D11
p2940
sa(dp2941
g5
VQ8NH21
p2942
sg7
L79501L
sg8
VOR4F5
p2943
sa(dp2944
g5
VQ8NGD5
p2945
sg7
L122740L
sg8
VOR4K14
p2946
sa(dp2947
g5
VQ8NGD1
p2948
sg7
L390429L
sg8
VOR4N2
p2949
sa(dp2950
g5
VQ8NH05
p2951
sg7
L441669L
sg8
VOR4Q3
p2952
sa(dp2953
g5
VQ8NH49
p2954
sg7
L390113L
sg8
VOR4X1
p2955
sa(dp2956
g5
VQ8NGR4
p2957
sg7
L392391L
sg8
VOR5C1
p2958
sa(dp2959
g5
VQ8NGK9
p2960
sg7
L390144L
sg8
VOR5D16
p2961
sa(dp2962
g5
VQ8NGL2
p2963
sg7
L219437L
sg8
VOR5L1
p2964
sa(dp2965
g5
VQ6IEU7
p2966
sg7
L390167L
sg8
VOR5M10
p2967
sa(dp2968
g5
VQ8WZ94
p2969
sg7
L120066L
sg8
VOR5P3
p2970
sa(dp2971
g5
VQ8NGG3
p2972
sg7
L390154L
sg8
VOR5T3
p2973
sa(dp2974
g5
VQ8NH69
p2975
sg7
L390148L
sg8
VOR5W2
p2976
sa(dp2977
g5
VO95222
p2978
sg7
L8590L
sg8
VOR6A2
p2979
sa(dp2980
g5
VQ9NZP0
p2981
sg7
L254786L
sg8
VOR6C3
p2982
sa(dp2983
g5
VQ8NGY2
p2984
sg7
L81448L
sg8
VOR6K2
p2985
sa(dp2986
g5
VQ8NGY5
p2987
sg7
L128372L
sg8
VOR6N1
p2988
sa(dp2989
g5
VQ8NGQ2
p2990
sg7
L219952L
sg8
VOR6Q1
p2991
sa(dp2992
g5
VQ8NH79
p2993
sg7
L390260L
sg8
VOR6X1
p2994
sa(dp2995
g5
VQ8NGA2
p2996
sg7
L390894L
sg8
VOR7A2P
p2997
sa(dp2998
g5
VQ8NGA0
p2999
sg7
L125962L
sg8
VOR7G1
p3000
sa(dp3001
g5
VQ8NG95
p3002
sg7
L390883L
sg8
VOR7G3
p3003
sa(dp3004
g5
VQ8NGG8
p3005
sg7
L390271L
sg8
VOR8B3
p3006
sa(dp3007
g5
VQ15620
p3008
sg7
L26493L
sg8
VOR8B8
p3009
sa(dp3010
g5
VQ9GZM6
p3011
sg7
L283160L
sg8
VOR8D2
p3012
sa(dp3013
g5
VQ8NG78
p3014
sg7
L219865L
sg8
VOR8G5
p3015
sa(dp3016
g5
VQ8N162
p3017
sg7
L390151L
sg8
VOR8H2
p3018
sa(dp3019
g5
VQ8N0Y5
p3020
sg7
L120586L
sg8
VOR8I2
p3021
sa(dp3022
g5
VQ8NGE7
p3023
sg7
L441639L
sg8
VOR9K2
p3024
sa(dp3025
g5
VQ96R47
p3026
sg7
L135941L
sg8
VOR2A14
p3027
sa(dp3028
g5
VQ8NGZ0
p3029
sg7
L127608L
sg8
VOR2AJ1
p3030
sa(dp3031
g5
VQ8NH61
p3032
sg7
L119694L
sg8
VOR51F2
p3033
sa(dp3034
g5
VQ9H343
p3035
sg7
L390063L
sg8
VOR51I1
p3036
sa(dp3037
g5
VQ8NGJ5
p3038
sg7
L119682L
sg8
VOR51L1
p3039
sa(dp3040
g5
VQ8NH59
p3041
sg7
L390061L
sg8
VOR51Q1
p3042
sa(dp3043
g5
VQ9H2C5
p3044
sg7
L390054L
sg8
VOR52A5
p3045
sa(dp3046
g5
VQ8NGJ3
p3047
sg7
L79296L
sg8
VOR52E1
p3048
sa(dp3049
g5
VQ8NGH9
p3050
sg7
L390081L
sg8
VOR52E4
p3051
sa(dp3052
g5
VQ8NGJ2
p3053
sg7
L390067L
sg8
VOR52H1
p3054
sa(dp3055
g5
VQ8NGK4
p3056
sg7
L390036L
sg8
VOR52K1
p3057
sa(dp3058
g5
VQ8NGK5
p3059
sg7
L119772L
sg8
VOR52M1
p3060
sa(dp3061
g5
VQ8NH56
p3062
sg7
L390075L
sg8
VOR52N5
p3063
sa(dp3064
g5
VQ9NZP5
p3065
sg7
L81050L
sg8
VOR5AC2
p3066
sa(dp3067
g5
VQ8NGP9
p3068
sg7
L219493L
sg8
VOR5AR1
p3069
sa(dp3070
g5
VA6NDH6
p3071
sg7
L403274L
sg8
VOR5H15
p3072
sa(dp3073
g5
VA6NCV1
p3074
sg7
L254783L
sg8
VOR6C74
p3075
sa(dp3076
g5
VP58170
p3077
sg7
L8386L
sg8
VOR1D5
p3078
sa(dp3079
g5
VQ8WZA6
p3080
sg7
L8389L
sg8
VOR1E3
p3081
sa(dp3082
g5
VO60431
p3083
sg7
L126370L
sg8
VOR1I1
p3084
sa(dp3085
g5
VQ8NGR3
p3086
sg7
L392392L
sg8
VOR1K1
p3087
sa(dp3088
g5
VO95371
p3089
sg7
L4993L
sg8
VOR2C1
p3090
sa(dp3091
g5
VO95006
p3092
sg7
L135948L
sg8
VOR2F2
p3093
sa(dp3094
g5
VO76001
p3095
sg7
L442186L
sg8
VOR2J3
p3096
sa(dp3097
g5
VQ96R28
p3098
sg7
L391194L
sg8
VOR2M2
p3099
sa(dp3100
g5
VA3KFT3
p3101
sg7
L127059L
sg8
VOR2M5
p3102
sa(dp3103
g5
VP0C604
p3104
sg7
L81315L
sg8
VOR4A8
p3105
sa(dp3106
g5
VQ8NH37
p3107
sg7
L256144L
sg8
VOR4C3
p3108
sa(dp3109
g5
VQ6IEV9
p3110
sg7
L219429L
sg8
VOR4C11
p3111
sa(dp3112
g5
VQ8NGL9
p3113
sg7
L219428L
sg8
VOR4C16
p3114
sa(dp3115
g5
VP58180
p3116
sg7
L124538L
sg8
VOR4D2
p3117
sa(dp3118
g5
VQ8N0Y3
p3119
sg7
L283694L
sg8
VOR4N4
p3120
sa(dp3121
g5
VQ8NH73
p3122
sg7
L219431L
sg8
VOR4S2
p3123
sa(dp3124
g5
VQ8NGJ0
p3125
sg7
L219982L
sg8
VOR5A1
p3126
sa(dp3127
g5
VQ8NGF7
p3128
sg7
L219965L
sg8
VOR5B17
p3129
sa(dp3130
g5
VQ8NGL4
p3131
sg7
L390142L
sg8
VOR5D13
p3132
sa(dp3133
g5
VQ8NGL1
p3134
sg7
L219438L
sg8
VOR5D18
p3135
sa(dp3136
g5
VQ13606
p3137
sg7
L10798L
sg8
VOR5I1
p3138
sa(dp3139
g5
VQ8NHB7
p3140
sg7
L26339L
sg8
VOR5K1
p3141
sa(dp3142
g5
VQ8NGP4
p3143
sg7
L219482L
sg8
VOR5M3
p3144
sa(dp3145
g5
VQ8NGZ6
p3146
sg7
L343169L
sg8
VOR6F1
p3147
sa(dp3148
g5
VQ8NGY3
p3149
sg7
L391114L
sg8
VOR6K3
p3150
sa(dp3151
g5
VQ8NGX9
p3152
sg7
L128366L
sg8
VOR6P1
p3153
sa(dp3154
g5
VQ8NGX8
p3155
sg7
L391112L
sg8
VOR6Y1
p3156
sa(dp3157
g5
VO76100
p3158
sg7
L390892L
sg8
VOR7A10
p3159
sa(dp3160
g5
VO60412
p3161
sg7
L26658L
sg8
VOR7C2
p3162
sa(dp3163
g5
VQ8NG99
p3164
sg7
L390882L
sg8
VOR7G2
p3165
sa(dp3166
g5
VQ8NGM9
p3167
sg7
L338662L
sg8
VOR8D4
p3168
sa(dp3169
g5
VQ15617
p3170
sg7
L26494L
sg8
VOR8G1
p3171
sa(dp3172
g5
VQ8NGG1
p3173
sg7
L81169L
sg8
VOR8J2
p3174
sa(dp3175
g5
VQ8NGG5
p3176
sg7
L390157L
sg8
VOR8K1
p3177
sa(dp3178
g5
VQ8NH50
p3179
sg7
L219453L
sg8
VOR8K5
p3180
sa(dp3181
g5
VP0C7N1
p3182
sg7
L504189L
sg8
VOR8U8
p3183
sa(dp3184
g5
VQ8NH74
p3185
sg7
L390093L
sg8
VOR10A6
p3186
sa(dp3187
g5
VQ8NGN6
p3188
sg7
L390265L
sg8
VOR10G7
p3189
sa(dp3190
g5
VO60404
p3191
sg7
L26532L
sg8
VOR10H3
p3192
sa(dp3193
g5
VP0C629
p3194
sg7
L391121L
sg8
VOR10J4
p3195
sa(dp3196
g5
VQ8NGX5
p3197
sg7
L391109L
sg8
VOR10K1
p3198
sa(dp3199
g5
VQ8NGY0
p3200
sg7
L128367L
sg8
VOR10X1
p3201
sa(dp3202
g5
VQ8NGC1
p3203
sg7
L390439L
sg8
VOR11G2
p3204
sa(dp3205
g5
VQ8NGC9
p3206
sg7
L390442L
sg8
VOR11H4
p3207
sa(dp3208
g5
VQ8NGC8
p3209
sg7
L390441L
sg8
VOR11H7
p3210
sa(dp3211
g5
VQ8NGS6
p3212
sg7
L138803L
sg8
VOR13C3
p3213
sa(dp3214
g5
VQ8NGS8
p3215
sg7
L138799L
sg8
VOR13C5
p3216
sa(dp3217
g5
VQ8NGZ3
p3218
sg7
L441933L
sg8
VOR13G1
p3219
sa(dp3220
g5
VQ8NGL6
p3221
sg7
L81328L
sg8
VOR4A15
p3222
sa(dp3223
g5
VA6NHA9
p3224
sg7
L119749L
sg8
VOR4C46
p3225
sa(dp3226
g5
VO95013
p3227
sg7
L441308L
sg8
VOR4F21
p3228
sa(dp3229
g5
VQ9Y5P0
p3230
sg7
L79339L
sg8
VOR51B4
p3231
sa(dp3232
g5
VQ8TCB6
p3233
sg7
L143503L
sg8
VOR51E1
p3234
sa(dp3235
g5
VQ8NGK1
p3236
sg7
L79324L
sg8
VOR51G1
p3237
sa(dp3238
g5
VQ8NGF1
p3239
sg7
L119695L
sg8
VOR52R1
p3240
sa(dp3241
g5
VQ8NGH8
p3242
sg7
L120793L
sg8
VOR56A4
p3243
sa(dp3244
g5
VQ8NH76
p3245
sg7
L196335L
sg8
VOR56B4
p3246
sa(dp3247
g5
VQ8NH89
p3248
sg7
L81228L
sg8
VOR5AK3P
p3249
sa(dp3250
g5
VQ8NGF4
p3251
sg7
L338675L
sg8
VOR5AP2
p3252
sa(dp3253
g5
VQ8N127
p3254
sg7
L219447L
sg8
VOR5AS1
p3255
sa(dp3256
g5
VA6NHG9
p3257
sg7
L403273L
sg8
VOR5H14
p3258
sa(dp3259
g5
VA6NDL8
p3260
sg7
L403284L
sg8
VOR6C68
p3261
sa(dp3262
g5
VP34982
p3263
sg7
L4991L
sg8
VOR1D2
p3264
sa(dp3265
g5
VQ8NGS1
p3266
sg7
L26219L
sg8
VOR1J4
p3267
sa(dp3268
g5
VQ8NGR2
p3269
sg7
L392390L
sg8
VOR1L6
p3270
sa(dp3271
g5
VQ8NH06
p3272
sg7
L8391L
sg8
VOR1P1
p3273
sa(dp3274
g5
VQ8NH92
p3275
sg7
L219959L
sg8
VOR1S1
p3276
sa(dp3277
g5
VP59922
p3278
sg7
L65944L
sg8
VOR2B8P
p3279
sa(dp3280
g5
VQ8NGH3
p3281
sg7
L120775L
sg8
VOR2D3
p3282
sa(dp3283
g5
VQ13607
p3284
sg7
L26211L
sg8
VOR2F1
p3285
sa(dp3286
g5
VQ9GZK6
p3287
sg7
L442185L
sg8
VOR2J1
p3288
sa(dp3289
g5
VQ8NGY9
p3290
sg7
L391190L
sg8
VOR2L8
p3291
sa(dp3292
g5
VQ8NG83
p3293
sg7
L127062L
sg8
VOR2M3
p3294
sa(dp3295
g5
VQ6IF00
p3296
sg7
L401992L
sg8
VOR2T2
p3297
sa(dp3298
g5
VQ8NHC8
p3299
sg7
L254879L
sg8
VOR2T6
p3300
sa(dp3301
g5
VQ8NHB1
p3302
sg7
L26693L
sg8
VOR2V1
p3303
sa(dp3304
g5
VQ7Z3T1
p3305
sg7
L343171L
sg8
VOR2W3
p3306
sa(dp3307
g5
VQ8NGV0
p3308
sg7
L134083L
sg8
VOR2Y1
p3309
sa(dp3310
g5
VP47893
p3311
sg7
L4995L
sg8
VOR3A2
p3312
sa(dp3313
g5
VP47883
p3314
sg7
L390756L
sg8
VOR3A4P
p3315
sa(dp3316
g5
VQ8NH48
p3317
sg7
L441608L
sg8
VOR5B3
p3318
sa(dp3319
g5
VP0C626
p3320
sg7
L81193L
sg8
VOR5G3
p3321
sa(dp3322
g5
VA6NKK0
p3323
sg7
L26341L
sg8
VOR5H1
p3324
sa(dp3325
g5
VQ8NH18
p3326
sg7
L282775L
sg8
VOR5J2
p3327
sa(dp3328
g5
VA6NMS3
p3329
sg7
L403278L
sg8
VOR5K4
p3330
sa(dp3331
g5
VQ8NGW1
p3332
sg7
L150681L
sg8
VOR6B3
p3333
sa(dp3334
g5
VQ9NZP2
p3335
sg7
L341416L
sg8
VOR6C2
p3336
sa(dp3337
g5
VQ8NGC5
p3338
sg7
L79549L
sg8
VOR6J1
p3339
sa(dp3340
g5
VQ8NGM8
p3341
sg7
L390261L
sg8
VOR6M1
p3342
sa(dp3343
g5
VQ8NH40
p3344
sg7
L341799L
sg8
VOR6S1
p3345
sa(dp3346
g5
VQ8N148
p3347
sg7
L346517L
sg8
VOR6V1
p3348
sa(dp3349
g5
VQ15622
p3350
sg7
L26659L
sg8
VOR7A5
p3351
sa(dp3352
g5
VO76099
p3353
sg7
L26664L
sg8
VOR7C1
p3354
sa(dp3355
g5
VQ8NGU1
p3356
sg7
L26495L
sg8
VOR9A1P
p3357
sa(dp3358
g5
VQ8NGU2
p3359
sg7
L130075L
sg8
VOR9A4
p3360
sa(dp3361
g5
VQ8NH87
p3362
sg7
L390174L
sg8
VOR9G1
p3363
sa(dp3364
g5
VQ8NGQ1
p3365
sg7
L283189L
sg8
VOR9G4
p3366
sa(dp3367
g5
VQ8NGE9
p3368
sg7
L219957L
sg8
VOR9Q2
p3369
sa(dp3370
g5
VA6NM03
p3371
sg7
L338755L
sg8
VOR2AG2
p3372
sa(dp3373
g5
VA6NND4
p3374
sg7
L341152L
sg8
VOR2AT4
p3375
sa(dp3376
g5
VQ8NG77
p3377
sg7
L127064L
sg8
VOR2T12
p3378
sa(dp3379
g5
VQ8NGX1
p3380
sg7
L127068L
sg8
VOR2T34
p3381
sa(dp3382
g5
VA6NMZ5
p3383
sg7
L403257L
sg8
VOR4C45
p3384
sa(dp3385
g5
VQ8NGB8
p3386
sg7
L390649L
sg8
VOR4F15
p3387
sa(dp3388
g5
VQ8NGJ6
p3389
sg7
L401666L
sg8
VOR51A4
p3390
sa(dp3391
g5
VQ9Y5P1
p3392
sg7
L79345L
sg8
VOR51B2
p3393
sa(dp3394
g5
VQ8NGF3
p3395
sg7
L390038L
sg8
VOR51D1
p3396
sa(dp3397
g5
VQ9H255
p3398
sg7
L81285L
sg8
VOR51E2
p3399
sa(dp3400
g5
VQ8NH63
p3401
sg7
L401663L
sg8
VOR51H1
p3402
sa(dp3403
g5
VQ9H2C8
p3404
sg7
L283111L
sg8
VOR51V1
p3405
sa(dp3406
g5
VQ8NGF0
p3407
sg7
L340980L
sg8
VOR52B6
p3408
sa(dp3409
g5
VQ8NGJ4
p3410
sg7
L119678L
sg8
VOR52E2
p3411
sa(dp3412
g5
VQ8NH55
p3413
sg7
L390082L
sg8
VOR52E5
p3414
sa(dp3415
g5
VQ8NGK6
p3416
sg7
L390037L
sg8
VOR52I1
p3417
sa(dp3418
g5
VQ8NGH6
p3419
sg7
L79274L
sg8
VOR52L2P
p3420
sa(dp3421
g5
VQ8NH53
p3422
sg7
L79473L
sg8
VOR52N1
p3423
sa(dp3424
g5
VQ8NGI2
p3425
sg7
L390072L
sg8
VOR52N4
p3426
sa(dp3427
g5
VQ8NGH5
p3428
sg7
L120796L
sg8
VOR56A1
p3429
sa(dp3430
g5
VQ8NGI1
p3431
sg7
L390073L
sg8
VOR56B2P
p3432
sa(dp3433
g5
VA6NJZ3
p3434
sg7
L403282L
sg8
VOR6C65
p3435
sa(dp3436
g5
VQ15619
p3437
sg7
L26188L
sg8
VOR1C1
p3438
sa(dp3439
g5
VQ8NHA8
p3440
sg7
L442179L
sg8
VOR1F12
p3441
sa(dp3442
g5
VQ8NGS2
p3443
sg7
L26740L
sg8
VOR1J2
p3444
sa(dp3445
g5
VQ8NH93
p3446
sg7
L26735L
sg8
VOR1L3
p3447
sa(dp3448
g5
VQ8NGS0
p3449
sg7
L138883L
sg8
VOR1N1
p3450
sa(dp3451
g5
VQ8NGQ3
p3452
sg7
L219958L
sg8
VOR1S2
p3453
sa(dp3454
g5
VQ8NGT9
p3455
sg7
L402317L
sg8
VOR2A42
p3456
sa(dp3457
g5
VQ96R45
p3458
sg7
L401427L
sg8
VOR2A7
p3459
sa(dp3460
g5
VO76000
p3461
sg7
L442184L
sg8
VOR2B3
p3462
sa(dp3463
g5
VP47881
p3464
sg7
L4994L
sg8
VOR3A1
p3465
sa(dp3466
g5
VQ8NGL7
p3467
sg7
L81300L
sg8
VOR4P4
p3468
sa(dp3469
g5
VQ8NGB4
p3470
sg7
L256148L
sg8
VOR4S1
p3471
sa(dp3472
g5
VQ8NGI9
p3473
sg7
L219981L
sg8
VOR5A2
p3474
sa(dp3475
g5
VQ8NGG7
p3476
sg7
L390275L
sg8
VOR8A1
p3477
sa(dp3478
g5
VQ96RC9
p3479
sg7
L283162L
sg8
VOR8B4
p3480
sa(dp3481
g5
VQ8NGG6
p3482
sg7
L219858L
sg8
VOR8B12
p3483
sa(dp3484
g5
VQ8NGG0
p3485
sg7
L81168L
sg8
VOR8J3
p3486
sa(dp3487
g5
VQ8NH51
p3488
sg7
L219473L
sg8
VOR8K3
p3489
sa(dp3490
g5
VQ8NH10
p3491
sg7
L219417L
sg8
VOR8U1
p3492
sa(dp3493
g5
VP0C7N5
p3494
sg7
L504190L
sg8
VOR8U9
p3495
sa(dp3496
g5
VQ8NGQ6
p3497
sg7
L219954L
sg8
VOR9I1
p3498
sa(dp3499
g5
VQ9P1Q5
p3500
sg7
L8383L
sg8
VOR1A1
p3501
sa(dp3502
g5
VQ8NGR6
p3503
sg7
L347169L
sg8
VOR1B1
p3504
sa(dp3505
g5
VP47884
p3506
sg7
L653166L
sg8
VOR1D4
p3507
sa(dp3508
g5
VP30953
p3509
sg7
L8387L
sg8
VOR1E1
p3510
sa(dp3511
g5
VP47887
p3512
sg7
L8388L
sg8
VOR1E2
p3513
sa(dp3514
g5
VQ96R84
p3515
sg7
L26184L
sg8
VOR1F2P
p3516
sa(dp3517
g5
VQ8NGS3
p3518
sg7
L347168L
sg8
VOR1J1
p3519
sa(dp3520
g5
VQ8NGR5
p3521
sg7
L254973L
sg8
VOR1L4
p3522
sa(dp3523
g5
VQ8NGA1
p3524
sg7
L125963L
sg8
VOR1M1
p3525
sa(dp3526
g5
VQ8NGR9
p3527
sg7
L138882L
sg8
VOR1N2
p3528
sa(dp3529
g5
VQ6IF42
p3530
sg7
L442361L
sg8
VOR2A2
p3531
sa(dp3532
g5
VQ96R48
p3533
sg7
L393046L
sg8
VOR2A5
p3534
sa(dp3535
g5
VP58173
p3536
sg7
L26212L
sg8
VOR2B6
p3537
sa(dp3538
g5
VQ9H210
p3539
sg7
L120776L
sg8
VOR2D2
p3540
sa(dp3541
g5
VQ8NGZ5
p3542
sg7
L81470L
sg8
VOR2G2
p3543
sa(dp3544
g5
VQ8NGU4
p3545
sg7
L442197L
sg8
VOR2I1P
p3546
sa(dp3547
g5
VO76002
p3548
sg7
L26707L
sg8
VOR2J2
p3549
sa(dp3550
g5
VQ8NH16
p3551
sg7
L26246L
sg8
VOR2L2
p3552
sa(dp3553
g5
VQ8NG80
p3554
sg7
L81466L
sg8
VOR2L5
p3555
sa(dp3556
g5
VQ8NG81
p3557
sg7
L391196L
sg8
VOR2M7
p3558
sa(dp3559
g5
VQ8NH03
p3560
sg7
L343173L
sg8
VOR2T3
p3561
sa(dp3562
g5
VQ96R30
p3563
sg7
L285659L
sg8
VOR2V2
p3564
sa(dp3565
g5
VA6NFC9
p3566
sg7
L441932L
sg8
VOR2W5
p3567
sa(dp3568
g5
VQ8NGB2
p3569
sg7
L79346L
sg8
VOR4C5
p3570
sa(dp3571
g5
VQ96R67
p3572
sg7
L283093L
sg8
VOR4C12
p3573
sa(dp3574
g5
VQ8NGM1
p3575
sg7
L81309L
sg8
VOR4C15
p3576
sa(dp3577
g5
VQ8NGE8
p3578
sg7
L390199L
sg8
VOR4D9
p3579
sa(dp3580
g5
VP0C645
p3581
sg7
L26687L
sg8
VOR4E1
p3582
sa(dp3583
g5
VQ96R69
p3584
sg7
L26682L
sg8
VOR4F4
p3585
sa(dp3586
g5
VQ8NGD4
p3587
sg7
L79544L
sg8
VOR4K1
p3588
sa(dp3589
g5
VQ96R72
p3590
sg7
L283617L
sg8
VOR4K3
p3591
sa(dp3592
g5
VQ8NH42
p3593
sg7
L390433L
sg8
VOR4K13
p3594
sa(dp3595
g5
VQ8NGC6
p3596
sg7
L390436L
sg8
VOR4K17
p3597
sa(dp3598
g5
VQ8NGD0
p3599
sg7
L441670L
sg8
VOR4M1
p3600
sa(dp3601
g5
VQ8IXE1
p3602
sg7
L390437L
sg8
VOR4N5
p3603
sa(dp3604
g5
VQ96R09
p3605
sg7
L390190L
sg8
VOR5B2
p3606
sa(dp3607
g5
VA6NL26
p3608
sg7
L219968L
sg8
VOR5B21
p3609
sa(dp3610
g5
VQ8NGL3
p3611
sg7
L219436L
sg8
VOR5D14
p3612
sa(dp3613
g5
VQ8NGV6
p3614
sg7
L79295L
sg8
VOR5H6
p3615
sa(dp3616
g5
VQ8NHB8
p3617
sg7
L402135L
sg8
VOR5K2
p3618
sa(dp3619
g5
VQ8NGL0
p3620
sg7
L26338L
sg8
VOR5L2
p3621
sa(dp3622
g5
VQ8NGP3
p3623
sg7
L390162L
sg8
VOR5M9
p3624
sa(dp3625
g5
VQ8WZ92
p3626
sg7
L120065L
sg8
VOR5P2
p3627
sa(dp3628
g5
VQ8NH85
p3629
sg7
L219479L
sg8
VOR5R1
p3630
sa(dp3631
g5
VQ8NGG2
p3632
sg7
L219464L
sg8
VOR5T2
p3633
sa(dp3634
g5
VQ6IFH4
p3635
sg7
L389090L
sg8
VOR6B2
p3636
sa(dp3637
g5
VQ96RD1
p3638
sg7
L390321L
sg8
VOR6C1
p3639
sa(dp3640
g5
VQ8NGE1
p3641
sg7
L341418L
sg8
VOR6C4
p3642
sa(dp3643
g5
VQ8NGW6
p3644
sg7
L128371L
sg8
VOR6K6
p3645
sa(dp3646
g5
VQ8NGY6
p3647
sg7
L81442L
sg8
VOR6N2
p3648
sa(dp3649
g5
VQ8NGN1
p3650
sg7
L219874L
sg8
VOR6T1
p3651
sa(dp3652
g5
VQ8NG98
p3653
sg7
L125958L
sg8
VOR7D4
p3654
sa(dp3655
g5
VQ8NGT5
p3656
sg7
L135924L
sg8
VOR9A2
p3657
sa(dp3658
g5
VP0C7N8
p3659
sg7
L504191L
sg8
VOR9G9
p3660
sa(dp3661
g5
VQ8NGQ5
p3662
sg7
L219956L
sg8
VOR9Q1
p3663
sasS'Kinase'
p3664
(lp3665
(dp3666
g5
VP42684
p3667
sg7
L27L
sg8
VABL2
p3668
sa(dp3669
g5
VP54619
p3670
sg7
L5571L
sg8
VPRKAG1
p3671
sa(dp3672
g5
VP54646
p3673
sg7
L5563L
sg8
VPRKAA2
p3674
sa(dp3675
g5
VP00519
p3676
sg7
L25L
sg8
VABL1
p3677
sa(dp3678
g5
VQ8NER5
p3679
sg7
L130399L
sg8
VACVR1C
p3680
sa(dp3681
g5
VQ04771
p3682
sg7
L90L
sg8
VACVR1
p3683
sa(dp3684
g5
VP37023
p3685
sg7
L94L
sg8
VACVRL1
p3686
sa(dp3687
g5
VQ8NI60
p3688
sg7
L56997L
sg8
VADCK3
p3689
sa(dp3690
g5
VQ2M2I8
p3691
sg7
L22848L
sg8
VAAK1
p3692
sa(dp3693
g5
VQ9Y478
p3694
sg7
L5564L
sg8
VPRKAB1
p3695
sa(dp3696
g5
VQ13131
p3697
sg7
L5562L
sg8
VPRKAA1
p3698
sa(dp3699
g5
VQ07912
p3700
sg7
L10188L
sg8
VTNK2
p3701
sa(dp3702
g5
VP36896
p3703
sg7
L91L
sg8
VACVR1B
p3704
sa(dp3705
g5
VQ86TW2
p3706
sg7
L57143L
sg8
VADCK1
p3707
sa(dp3708
g5
VP55263
p3709
sg7
L132L
sg8
VADK
p3710
sa(dp3711
g5
VP31751
p3712
sg7
L208L
sg8
VAKT2
p3713
sa(dp3714
g5
VQ7Z695
p3715
sg7
L90956L
sg8
VADCK2
p3716
sa(dp3717
g5
VP31749
p3718
sg7
L207L
sg8
VAKT1
p3719
sa(dp3720
g5
VQ3MIX3
p3721
sg7
L203054L
sg8
VADCK5
p3722
sa(dp3723
g5
VQ9Y243
p3724
sg7
L10000L
sg8
VAKT3
p3725
sa(dp3726
g5
VQ96L96
p3727
sg7
L57538L
sg8
VALPK3
p3728
sa(dp3729
g5
VP16066
p3730
sg7
L4881L
sg8
VNPR1
p3731
sa(dp3732
g5
VP20594
p3733
sg7
L4882L
sg8
VNPR2
p3734
sa(dp3735
g5
VQ96D53
p3736
sg7
L79934L
sg8
VADCK4
p3737
sa(dp3738
g5
VQ96QP1
p3739
sg7
L80216L
sg8
VALPK1
p3740
sa(dp3741
g5
VQ16671
p3742
sg7
L269L
sg8
VAMHR2
p3743
sa(dp3744
g5
VQ8NFD2
p3745
sg7
L255239L
sg8
VANKK1
p3746
sa(dp3747
g5
VQ86TB3
p3748
sg7
L115701L
sg8
VALPK2
p3749
sa(dp3750
g5
VP25098
p3751
sg7
L156L
sg8
VADRBK1
p3752
sa(dp3753
g5
VQ9UM73
p3754
sg7
L238L
sg8
VALK
p3755
sa(dp3756
g5
VP35626
p3757
sg7
L157L
sg8
VADRBK2
p3758
sa(dp3759
g5
VP10398
p3760
sg7
L369L
sg8
VARAF
p3761
sa(dp3762
g5
VQ13315
p3763
sg7
L472L
sg8
VATM
p3764
sa(dp3765
g5
VQ13535
p3766
sg7
L545L
sg8
VATR
p3767
sa(dp3768
g5
VO14965
p3769
sg7
L6790L
sg8
VAURKA
p3770
sa(dp3771
g5
VP27037
p3772
sg7
L92L
sg8
VACVR2A
p3773
sa(dp3774
g5
VQ13705
p3775
sg7
L93L
sg8
VACVR2B
p3776
sa(dp3777
g5
VQ9UQB9
p3778
sg7
L6795L
sg8
VAURKC
p3779
sa(dp3780
g5
VO00238
p3781
sg7
L658L
sg8
VBMPR1B
p3782
sa(dp3783
g5
VO14874
p3784
sg7
L10295L
sg8
VBCKDK
p3785
sa(dp3786
g5
VP15056
p3787
sg7
L673L
sg8
VBRAF
p3788
sa(dp3789
g5
VQ8TDC3
p3790
sg7
L84446L
sg8
VBRSK1
p3791
sa(dp3792
g5
VQ96GD4
p3793
sg7
L9212L
sg8
VAURKB
p3794
sa(dp3795
g5
VP51451
p3796
sg7
L640L
sg8
VBLK
p3797
sa(dp3798
g5
VP36894
p3799
sg7
L657L
sg8
VBMPR1A
p3800
sa(dp3801
g5
VQ9NSY1
p3802
sg7
L55589L
sg8
VBMP2K
p3803
sa(dp3804
g5
VQ06187
p3805
sg7
L695L
sg8
VBTK
p3806
sa(dp3807
g5
VP51813
p3808
sg7
L660L
sg8
VBMX
p3809
sa(dp3810
g5
VQ13873
p3811
sg7
L659L
sg8
VBMPR2
p3812
sa(dp3813
g5
VO43683
p3814
sg7
L699L
sg8
VBUB1
p3815
sa(dp3816
g5
VQ8IWQ3
p3817
sg7
L9024L
sg8
VBRSK2
p3818
sa(dp3819
g5
VO60566
p3820
sg7
L701L
sg8
VBUB1B
p3821
sa(dp3822
g5
VQ9UQ88
p3823
sg7
L728642L
sg8
VCDK11A
p3824
sa(dp3825
g5
VQ8NCB2
p3826
sg7
L79012L
sg8
VCAMKV
p3827
sa(dp3828
g5
VQ9BWU1
p3829
sg7
L23097L
sg8
VCDK19
p3830
sa(dp3831
g5
VQ8IZL9
p3832
sg7
L23552L
sg8
VCDK20
p3833
sa(dp3834
g5
VQ8IVW4
p3835
sg7
L51265L
sg8
VCDKL3
p3836
sa(dp3837
g5
VQ9NYV4
p3838
sg7
L51755L
sg8
VCDK12
p3839
sa(dp3840
g5
VP24941
p3841
sg7
L1017L
sg8
VCDK2
p3842
sa(dp3843
g5
VQ00535
p3844
sg7
L1020L
sg8
VCDK5
p3845
sa(dp3846
g5
VQ5MAI5
p3847
sg7
L344387L
sg8
VCDKL4
p3848
sa(dp3849
g5
VQ00526
p3850
sg7
L1018L
sg8
VCDK3
p3851
sa(dp3852
g5
VP11802
p3853
sg7
L1019L
sg8
VCDK4
p3854
sa(dp3855
g5
VP49336
p3856
sg7
L1024L
sg8
VCDK8
p3857
sa(dp3858
g5
VO76039
p3859
sg7
L6792L
sg8
VCDKL5
p3860
sa(dp3861
g5
VQ00536
p3862
sg7
L5127L
sg8
VCDK16
p3863
sa(dp3864
g5
VP06493
p3865
sg7
L983L
sg8
VCDK1
p3866
sa(dp3867
g5
VQ00534
p3868
sg7
L1021L
sg8
VCDK6
p3869
sa(dp3870
g5
VQ00532
p3871
sg7
L8814L
sg8
VCDKL1
p3872
sa(dp3873
g5
VQ92772
p3874
sg7
L8999L
sg8
VCDKL2
p3875
sa(dp3876
g5
VO00311
p3877
sg7
L8317L
sg8
VCDC7
p3878
sa(dp3879
g5
VQ96Q40
p3880
sg7
L65061L
sg8
VCDK15
p3881
sa(dp3882
g5
VP50750
p3883
sg7
L1025L
sg8
VCDK9
p3884
sa(dp3885
g5
VQ8TCT0
p3886
sg7
L64781L
sg8
VCERK
p3887
sa(dp3888
g5
VQ14004
p3889
sg7
L8621L
sg8
VCDK13
p3890
sa(dp3891
g5
VQ00537
p3892
sg7
L5128L
sg8
VCDK17
p3893
sa(dp3894
g5
VO14757
p3895
sg7
L1111L
sg8
VCHEK1
p3896
sa(dp3897
g5
VP21127
p3898
sg7
L984L
sg8
VCDK11B
p3899
sa(dp3900
g5
VO94921
p3901
sg7
L5218L
sg8
VCDK14
p3902
sa(dp3903
g5
VQ07002
p3904
sg7
L5129L
sg8
VCDK18
p3905
sa(dp3906
g5
VP50613
p3907
sg7
L1022L
sg8
VCDK7
p3908
sa(dp3909
g5
VP49760
p3910
sg7
L1196L
sg8
VCLK2
p3911
sa(dp3912
g5
VQ9HAZ1
p3913
sg7
L57396L
sg8
VCLK4
p3914
sa(dp3915
g5
VQ15131
p3916
sg7
L8558L
sg8
VCDK10
p3917
sa(dp3918
g5
VP35790
p3919
sg7
L1119L
sg8
VCHKA
p3920
sa(dp3921
g5
VQ9Y259
p3922
sg7
L1120L
sg8
VCHKB
p3923
sa(dp3924
g5
VO96017
p3925
sg7
L11200L
sg8
VCHEK2
p3926
sa(dp3927
g5
VP49761
p3928
sg7
L1198L
sg8
VCLK3
p3929
sa(dp3930
g5
VP49759
p3931
sg7
L1195L
sg8
VCLK1
p3932
sa(dp3933
g5
VP07333
p3934
sg7
L1436L
sg8
VCSF1R
p3935
sa(dp3936
g5
VQ8NEV1
p3937
sg7
L283106L
sg8
VCSNK2A3
p3938
sa(dp3939
g5
VP67870
p3940
sg7
L1460L
sg8
VCSNK2B
p3941
sa(dp3942
g5
VO14936
p3943
sg7
L8573L
sg8
VCASK
p3944
sa(dp3945
g5
VP19784
p3946
sg7
L1459L
sg8
VCSNK2A2
p3947
sa(dp3948
g5
VP41240
p3949
sg7
L1445L
sg8
VCSK
p3950
sa(dp3951
g5
VP68400
p3952
sg7
L1457L
sg8
VCSNK2A1
p3953
sa(dp3954
g5
VO14578
p3955
sg7
L11113L
sg8
VCIT
p3956
sa(dp3957
g5
VO43293
p3958
sg7
L1613L
sg8
VDAPK3
p3959
sa(dp3960
g5
VQ08345
p3961
sg7
L780L
sg8
VDDR1
p3962
sa(dp3963
g5
VP52824
p3964
sg7
L1609L
sg8
VDGKQ
p3965
sa(dp3966
g5
VQ16854
p3967
sg7
L1716L
sg8
VDGUOK
p3968
sa(dp3969
g5
VP53355
p3970
sg7
L1612L
sg8
VDAPK1
p3971
sa(dp3972
g5
VP27707
p3973
sg7
L1633L
sg8
VDCK
p3974
sa(dp3975
g5
VO15075
p3976
sg7
L9201L
sg8
VDCLK1
p3977
sa(dp3978
g5
VQ16832
p3979
sg7
L4921L
sg8
VDDR2
p3980
sa(dp3981
g5
VQ9UIK4
p3982
sg7
L23604L
sg8
VDAPK2
p3983
sa(dp3984
g5
VQ8N568
p3985
sg7
L166614L
sg8
VDCLK2
p3986
sa(dp3987
g5
VP23743
p3988
sg7
L1606L
sg8
VDGKA
p3989
sa(dp3990
g5
VQ09013
p3991
sg7
L1760L
sg8
VDMPK
p3992
sa(dp3993
g5
VQ9C098
p3994
sg7
L85443L
sg8
VDCLK3
p3995
sa(dp3996
g5
VQ86XP1
p3997
sg7
L160851L
sg8
VDGKH
p3998
sa(dp3999
g5
VQ6XUX3
p4000
sg7
L25778L
sg8
VDSTYK
p4001
sa(dp4002
g5
VP19525
p4003
sg7
L5610L
sg8
VEIF2AK2
p4004
sa(dp4005
g5
VO43781
p4006
sg7
L8444L
sg8
VDYRK3
p4007
sa(dp4008
g5
VQ9NZJ5
p4009
sg7
L9451L
sg8
VEIF2AK3
p4010
sa(dp4011
g5
VQ9P2K8
p4012
sg7
L440275L
sg8
VEIF2AK4
p4013
sa(dp4014
g5
VQ13627
p4015
sg7
L1859L
sg8
VDYRK1A
p4016
sa(dp4017
g5
VQ9Y463
p4018
sg7
L9149L
sg8
VDYRK1B
p4019
sa(dp4020
g5
VQ9NR20
p4021
sg7
L8798L
sg8
VDYRK4
p4022
sa(dp4023
g5
VQ9BQI3
p4024
sg7
L27102L
sg8
VEIF2AK1
p4025
sa(dp4026
g5
VO00418
p4027
sg7
L29904L
sg8
VEEF2K
p4028
sa(dp4029
g5
VQ92630
p4030
sg7
L8445L
sg8
VDYRK2
p4031
sa(dp4032
g5
VP54756
p4033
sg7
L2044L
sg8
VEPHA5
p4034
sa(dp4035
g5
VP29322
p4036
sg7
L2046L
sg8
VEPHA8
p4037
sa(dp4038
g5
VP54762
p4039
sg7
L2047L
sg8
VEPHB1
p4040
sa(dp4041
g5
VP54760
p4042
sg7
L2050L
sg8
VEPHB4
p4043
sa(dp4044
g5
VP20827
p4045
sg7
L1942L
sg8
VEFNA1
p4046
sa(dp4047
g5
VP21860
p4048
sg7
L2065L
sg8
VERBB3
p4049
sa(dp4050
g5
VP00533
p4051
sg7
L1956L
sg8
VEGFR
p4052
sa(dp4053
g5
VP29320
p4054
sg7
L2042L
sg8
VEPHA3
p4055
sa(dp4056
g5
VQ15375
p4057
sg7
L2045L
sg8
VEPHA7
p4058
sa(dp4059
g5
VO15197
p4060
sg7
L2051L
sg8
VEPHB6
p4061
sa(dp4062
g5
VO75460
p4063
sg7
L2081L
sg8
VERN1
p4064
sa(dp4065
g5
VQ9UF33
p4066
sg7
L285220L
sg8
VEPHA6
p4067
sa(dp4068
g5
VQ5JZY3
p4069
sg7
L284656L
sg8
VEPHA10
p4070
sa(dp4071
g5
VP29323
p4072
sg7
L2048L
sg8
VEPHB2
p4073
sa(dp4074
g5
VP54753
p4075
sg7
L2049L
sg8
VEPHB3
p4076
sa(dp4077
g5
VP29317
p4078
sg7
L1969L
sg8
VEPHA2
p4079
sa(dp4080
g5
VP21709
p4081
sg7
L2041L
sg8
VEPHA1
p4082
sa(dp4083
g5
VP54764
p4084
sg7
L2043L
sg8
VEPHA4
p4085
sa(dp4086
g5
VP04626
p4087
sg7
L2064L
sg8
VERBB2
p4088
sa(dp4089
g5
VQ15303
p4090
sg7
L2066L
sg8
VERBB4
p4091
sa(dp4092
g5
VQ76MJ5
p4093
sg7
L10595L
sg8
VERN2
p4094
sa(dp4095
g5
VQ16875
p4096
sg7
L5209L
sg8
VPFKFB3
p4097
sa(dp4098
g5
VQ05397
p4099
sg7
L5747L
sg8
VPTK2
p4100
sa(dp4101
g5
VP16591
p4102
sg7
L2241L
sg8
VFER
p4103
sa(dp4104
g5
VP07332
p4105
sg7
L2242L
sg8
VFES
p4106
sa(dp4107
g5
VP09769
p4108
sg7
L2268L
sg8
VFGR
p4109
sa(dp4110
g5
VP16118
p4111
sg7
L5207L
sg8
VPFKFB1
p4112
sa(dp4113
g5
VO60825
p4114
sg7
L5208L
sg8
VPFKFB2
p4115
sa(dp4116
g5
VQ14296
p4117
sg7
L10922L
sg8
VFASTK
p4118
sa(dp4119
g5
VP22455
p4120
sg7
L2264L
sg8
VFGFR4
p4121
sa(dp4122
g5
VP21802
p4123
sg7
L2263L
sg8
VFGFR2
p4124
sa(dp4125
g5
VQ14289
p4126
sg7
L2185L
sg8
VPTK2B
p4127
sa(dp4128
g5
VP11362
p4129
sg7
L2260L
sg8
VFGFR1
p4130
sa(dp4131
g5
VP36888
p4132
sg7
L2322L
sg8
VFLT3
p4133
sa(dp4134
g5
VP42685
p4135
sg7
L2444L
sg8
VFRK
p4136
sa(dp4137
g5
VP22607
p4138
sg7
L2261L
sg8
VFGFR3
p4139
sa(dp4140
g5
VQ9Y2I7
p4141
sg7
L200576L
sg8
VPIKFYVE
p4142
sa(dp4143
g5
VO14976
p4144
sg7
L2580L
sg8
VGAK
p4145
sa(dp4146
g5
VP06241
p4147
sg7
L2534L
sg8
VFYN
p4148
sa(dp4149
g5
VQ14410
p4150
sg7
L2712L
sg8
VGK2
p4151
sa(dp4152
g5
VP49841
p4153
sg7
L2932L
sg8
VGSK3B
p4154
sa(dp4155
g5
VP34947
p4156
sg7
L2869L
sg8
VGRK5
p4157
sa(dp4158
g5
VP43250
p4159
sg7
L2870L
sg8
VGRK6
p4160
sa(dp4161
g5
VP49840
p4162
sg7
L2931L
sg8
VGSK3A
p4163
sa(dp4164
g5
VQ02846
p4165
sg7
L3000L
sg8
VGUCY2D
p4166
sa(dp4167
g5
VP51841
p4168
sg7
L2986L
sg8
VGUCY2F
p4169
sa(dp4170
g5
VQ96GX5
p4171
sg7
L84930L
sg8
VMASTL
p4172
sa(dp4173
g5
VP32298
p4174
sg7
L2868L
sg8
VGRK4
p4175
sa(dp4176
g5
VQ8WTQ7
p4177
sg7
L131890L
sg8
VGRK7
p4178
sa(dp4179
g5
VP25092
p4180
sg7
L2984L
sg8
VGUCY2C
p4181
sa(dp4182
g5
VQ8TF76
p4183
sg7
L83903L
sg8
VGSG2
p4184
sa(dp4185
g5
VQ8NE63
p4186
sg7
L147746L
sg8
VHIPK4
p4187
sa(dp4188
g5
VP08631
p4189
sg7
L3055L
sg8
VHCK
p4190
sa(dp4191
g5
VQ9H422
p4192
sg7
L10114L
sg8
VHIPK3
p4193
sa(dp4194
g5
VQ86Z02
p4195
sg7
L204851L
sg8
VHIPK1
p4196
sa(dp4197
g5
VQ9H2X6
p4198
sg7
L28996L
sg8
VHIPK2
p4199
sa(dp4200
g5
VP35557
p4201
sg7
L2645L
sg8
VGCK
p4202
sa(dp4203
g5
VP57058
p4204
sg7
L30811L
sg8
VHUNK
p4205
sa(dp4206
g5
VP08069
p4207
sg7
L3480L
sg8
VIGF1R
p4208
sa(dp4209
g5
VO15111
p4210
sg7
L1147L
sg8
VCHUK
p4211
sa(dp4212
g5
VQ14164
p4213
sg7
L9641L
sg8
VIKBKE
p4214
sa(dp4215
g5
VP19367
p4216
sg7
L3098L
sg8
VHK1
p4217
sa(dp4218
g5
VO14920
p4219
sg7
L3551L
sg8
VIKBKB
p4220
sa(dp4221
g5
VQ8NFU5
p4222
sg7
L253430L
sg8
VIPMK
p4223
sa(dp4224
g5
VQ9UPZ9
p4225
sg7
L22858L
sg8
VICK
p4226
sa(dp4227
g5
VP14616
p4228
sg7
L3645L
sg8
VINSRR
p4229
sa(dp4230
g5
VP27987
p4231
sg7
L3707L
sg8
VITPKB
p4232
sa(dp4233
g5
VQ9NWZ3
p4234
sg7
L51135L
sg8
VIRAK4
p4235
sa(dp4236
g5
VQ08881
p4237
sg7
L3702L
sg8
VITK
p4238
sa(dp4239
g5
VQ13418
p4240
sg7
L3611L
sg8
VILK
p4241
sa(dp4242
g5
VP23677
p4243
sg7
L3706L
sg8
VITPKA
p4244
sa(dp4245
g5
VO43187
p4246
sg7
L3656L
sg8
VIRAK2
p4247
sa(dp4248
g5
VP06213
p4249
sg7
L3643L
sg8
VINSR
p4250
sa(dp4251
g5
VP52333
p4252
sg7
L3718L
sg8
VJAK3
p4253
sa(dp4254
g5
VP54819
p4255
sg7
L204L
sg8
VAK2
p4256
sa(dp4257
g5
VQ9Y616
p4258
sg7
L11213L
sg8
VIRAK3
p4259
sa(dp4260
g5
VP23458
p4261
sg7
L3716L
sg8
VJAK1
p4262
sa(dp4263
g5
VO60674
p4264
sg7
L3717L
sg8
VJAK2
p4265
sa(dp4266
g5
VP17612
p4267
sg7
L5566L
sg8
VPRKACA
p4268
sa(dp4269
g5
VP48729
p4270
sg7
L1452L
sg8
VCSNK1A1
p4271
sa(dp4272
g5
VQ9Y6M4
p4273
sg7
L1456L
sg8
VCSNK1G3
p4274
sa(dp4275
g5
VQ13555
p4276
sg7
L818L
sg8
VCAMK2G
p4277
sa(dp4278
g5
VP51617
p4279
sg7
L3654L
sg8
VIRAK1
p4280
sa(dp4281
g5
VP78368
p4282
sg7
L1455L
sg8
VCSNK1G2
p4283
sa(dp4284
g5
VP06732
p4285
sg7
L1158L
sg8
VCKM
p4286
sa(dp4287
g5
VP22612
p4288
sg7
L5568L
sg8
VPRKACG
p4289
sa(dp4290
g5
VQ9HCP0
p4291
sg7
L53944L
sg8
VCSNK1G1
p4292
sa(dp4293
g5
VQ14012
p4294
sg7
L8536L
sg8
VCAMK1
p4295
sa(dp4296
g5
VQ13572
p4297
sg7
L3705L
sg8
VITPK1
p4298
sa(dp4299
g5
VQ9UQM7
p4300
sg7
L815L
sg8
VCAMK2A
p4301
sa(dp4302
g5
VQ13554
p4303
sg7
L816L
sg8
VCAMK2B
p4304
sa(dp4305
g5
VQ13557
p4306
sg7
L817L
sg8
VCAMK2D
p4307
sa(dp4308
g5
VP50053
p4309
sg7
L3795L
sg8
VKHK
p4310
sa(dp4311
g5
VP10721
p4312
sg7
L3815L
sg8
VKIT
p4313
sa(dp4314
g5
VP00568
p4315
sg7
L203L
sg8
VAK1
p4316
sa(dp4317
g5
VO60229
p4318
sg7
L8997L
sg8
VKALRN
p4319
sa(dp4320
g5
VQ8N752
p4321
sg7
L122011L
sg8
VCSNK1A1L
p4322
sa(dp4323
g5
VP49674
p4324
sg7
L1454L
sg8
VCSNK1E
p4325
sa(dp4326
g5
VQ02156
p4327
sg7
L5581L
sg8
VPRKCE
p4328
sa(dp4329
g5
VQ05513
p4330
sg7
L5590L
sg8
VPRKCZ
p4331
sa(dp4332
g5
VQ96QS6
p4333
sg7
L85481L
sg8
VPSKH2
p4334
sa(dp4335
g5
VQ9UIJ7
p4336
sg7
L50808L
sg8
VAK3
p4337
sa(dp4338
g5
VQ8IU85
p4339
sg7
L57118L
sg8
VCAMK1D
p4340
sa(dp4341
g5
VQ16566
p4342
sg7
L814L
sg8
VCAMK4
p4343
sa(dp4344
g5
VQ03426
p4345
sg7
L4598L
sg8
VMVK
p4346
sa(dp4347
g5
VO00142
p4348
sg7
L7084L
sg8
VTK2
p4349
sa(dp4350
g5
VP17252
p4351
sg7
L5578L
sg8
VPRKCA
p4352
sa(dp4353
g5
VP05771
p4354
sg7
L5579L
sg8
VPRKCB
p4355
sa(dp4356
g5
VP24723
p4357
sg7
L5583L
sg8
VPRKCH
p4358
sa(dp4359
g5
VP22694
p4360
sg7
L5567L
sg8
VPRKACB
p4361
sa(dp4362
g5
VP48730
p4363
sg7
L1453L
sg8
VCSNK1D
p4364
sa(dp4365
g5
VQ6P2M8
p4366
sg7
L139728L
sg8
VPNCK
p4367
sa(dp4368
g5
VQ96NX5
p4369
sg7
L57172L
sg8
VCAMK1G
p4370
sa(dp4371
g5
VQ16774
p4372
sg7
L2987L
sg8
VGUK1
p4373
sa(dp4374
g5
VQ15349
p4375
sg7
L6196L
sg8
VRPS6KA2
p4376
sa(dp4377
g5
VO75676
p4378
sg7
L8986L
sg8
VRPS6KA4
p4379
sa(dp4380
g5
VO75582
p4381
sg7
L9252L
sg8
VRPS6KA5
p4382
sa(dp4383
g5
VQ6VAB6
p4384
sg7
L283455L
sg8
VKSR2
p4385
sa(dp4386
g5
VQ13976
p4387
sg7
L5592L
sg8
VPRKG1
p4388
sa(dp4389
g5
VQ8N5S9
p4390
sg7
L84254L
sg8
VCAMKK1
p4391
sa(dp4392
g5
VP46019
p4393
sg7
L5256L
sg8
VPHKA2
p4394
sa(dp4395
g5
VP05129
p4396
sg7
L5582L
sg8
VPRKCG
p4397
sa(dp4398
g5
VP41743
p4399
sg7
L5584L
sg8
VPRKCI
p4400
sa(dp4401
g5
VP11801
p4402
sg7
L5681L
sg8
VPSKH1
p4403
sa(dp4404
g5
VQ9UK32
p4405
sg7
L27330L
sg8
VRPS6KA6
p4406
sa(dp4407
g5
VP23443
p4408
sg7
L6198L
sg8
VRPS6KB1
p4409
sa(dp4410
g5
VQ8IVT5
p4411
sg7
L8844L
sg8
VKSR1
p4412
sa(dp4413
g5
VQ13237
p4414
sg7
L5593L
sg8
VPRKG2
p4415
sa(dp4416
g5
VQ96RR4
p4417
sg7
L10645L
sg8
VCAMKK2
p4418
sa(dp4419
g5
VP46020
p4420
sg7
L5255L
sg8
VPHKA1
p4421
sa(dp4422
g5
VQ9BZL6
p4423
sg7
L25865L
sg8
VPRKD2
p4424
sa(dp4425
g5
VO95835
p4426
sg7
L9113L
sg8
VLATS1
p4427
sa(dp4428
g5
VQ15418
p4429
sg7
L6195L
sg8
VRPS6KA1
p4430
sa(dp4431
g5
VQ9UBS0
p4432
sg7
L6199L
sg8
VRPS6KB2
p4433
sa(dp4434
g5
VQ96S38
p4435
sg7
L26750L
sg8
VRPS6KC1
p4436
sa(dp4437
g5
VP43405
p4438
sg7
L6850L
sg8
VSYK
p4439
sa(dp4440
g5
VQ9NRM7
p4441
sg7
L26524L
sg8
VLATS2
p4442
sa(dp4443
g5
VP04183
p4444
sg7
L7083L
sg8
VTK1
p4445
sa(dp4446
g5
VP14618
p4447
sg7
L5315L
sg8
VPKM
p4448
sa(dp4449
g5
VP30613
p4450
sg7
L5313L
sg8
VPKLR
p4451
sa(dp4452
g5
VP51812
p4453
sg7
L6197L
sg8
VRPS6KA3
p4454
sa(dp4455
g5
VP06239
p4456
sg7
L3932L
sg8
VLCK
p4457
sa(dp4458
g5
VQ15139
p4459
sg7
L5587L
sg8
VPRKD1
p4460
sa(dp4461
g5
VO94806
p4462
sg7
L23683L
sg8
VPRKD3
p4463
sa(dp4464
g5
VQ05655
p4465
sg7
L5580L
sg8
VPRKCD
p4466
sa(dp4467
g5
VQ04759
p4468
sg7
L5588L
sg8
VPRKCQ
p4469
sa(dp4470
g5
VP23919
p4471
sg7
L1841L
sg8
VDTYMK
p4472
sa(dp4473
g5
VQ6ZMQ8
p4474
sg7
L9625L
sg8
VAATK
p4475
sa(dp4476
g5
VP53671
p4477
sg7
L3985L
sg8
VLIMK2
p4478
sa(dp4479
g5
VP53667
p4480
sg7
L3984L
sg8
VLIMK1
p4481
sa(dp4482
g5
VQ5S007
p4483
sg7
L120892L
sg8
VLRRK2
p4484
sa(dp4485
g5
VQ99759
p4486
sg7
L4215L
sg8
VMAP3K3
p4487
sa(dp4488
g5
VQ8IWU2
p4489
sg7
L22853L
sg8
VLMTK2
p4490
sa(dp4491
g5
VQ96Q04
p4492
sg7
L114783L
sg8
VLMTK3
p4493
sa(dp4494
g5
VQ5TCX8
p4495
sg7
L84451L
sg8
VMLK4
p4496
sa(dp4497
g5
VQ8IVH8
p4498
sg7
L8491L
sg8
VMAP4K3
p4499
sa(dp4500
g5
VP20794
p4501
sg7
L4117L
sg8
VMAK
p4502
sa(dp4503
g5
VP07948
p4504
sg7
L4067L
sg8
VLYN
p4505
sa(dp4506
g5
VQ7KZI7
p4507
sg7
L2011L
sg8
VMARK2
p4508
sa(dp4509
g5
VQ96L34
p4510
sg7
L57787L
sg8
VMARK4
p4511
sa(dp4512
g5
VO60307
p4513
sg7
L23031L
sg8
VMAST3
p4514
sa(dp4515
g5
VQ56UN5
p4516
sg7
L80122L
sg8
VMAP3K19
p4517
sa(dp4518
g5
VQ38SD2
p4519
sg7
L79705L
sg8
VLRRK1
p4520
sa(dp4521
g5
VO43283
p4522
sg7
L9175L
sg8
VMAP3K13
p4523
sa(dp4524
g5
VQ99558
p4525
sg7
L9020L
sg8
VMAP3K14
p4526
sa(dp4527
g5
VP41279
p4528
sg7
L1326L
sg8
VMAP3K8
p4529
sa(dp4530
g5
VO43318
p4531
sg7
L6885L
sg8
VMAP3K7
p4532
sa(dp4533
g5
VQ8IW41
p4534
sg7
L8550L
sg8
VMAPKAPK5
p4535
sa(dp4536
g5
VP29376
p4537
sg7
L4058L
sg8
VLTK
p4538
sa(dp4539
g5
VQ9Y2U5
p4540
sg7
L10746L
sg8
VMAP3K2
p4541
sa(dp4542
g5
VP80192
p4543
sg7
L4293L
sg8
VMAP3K9
p4544
sa(dp4545
g5
VQ16584
p4546
sg7
L4296L
sg8
VMAP3K11
p4547
sa(dp4548
g5
VQ12851
p4549
sg7
L5871L
sg8
VMAP4K2
p4550
sa(dp4551
g5
VP49137
p4552
sg7
L9261L
sg8
VMAPKAPK2
p4553
sa(dp4554
g5
VQ02779
p4555
sg7
L4294L
sg8
VMAP3K10
p4556
sa(dp4557
g5
VQ6ZN16
p4558
sg7
L389840L
sg8
VMAP3K15
p4559
sa(dp4560
g5
VO95382
p4561
sg7
L9064L
sg8
VMAP3K6
p4562
sa(dp4563
g5
VQ13233
p4564
sg7
L4214L
sg8
VMAP3K1
p4565
sa(dp4566
g5
VQ9Y4K4
p4567
sg7
L11183L
sg8
VMAP4K5
p4568
sa(dp4569
g5
VQ16644
p4570
sg7
L7867L
sg8
VMAPKAPK3
p4571
sa(dp4572
g5
VO15021
p4573
sg7
L375449L
sg8
VMAST4
p4574
sa(dp4575
g5
VQ12852
p4576
sg7
L7786L
sg8
VMAP3K12
p4577
sa(dp4578
g5
VQ99683
p4579
sg7
L4217L
sg8
VMAP3K5
p4580
sa(dp4581
g5
VQ9Y6R4
p4582
sg7
L4216L
sg8
VMAP3K4
p4583
sa(dp4584
g5
VQ92918
p4585
sg7
L11184L
sg8
VMAP4K1
p4586
sa(dp4587
g5
VO95819
p4588
sg7
L9448L
sg8
VMAP4K4
p4589
sa(dp4590
g5
VQ6P0Q8
p4591
sg7
L23139L
sg8
VMAST2
p4592
sa(dp4593
g5
VQ9P0L2
p4594
sg7
L4139L
sg8
VMARK1
p4595
sa(dp4596
g5
VQ9Y2H9
p4597
sg7
L22983L
sg8
VMAST1
p4598
sa(dp4599
g5
VP42679
p4600
sg7
L4145L
sg8
VMATK
p4601
sa(dp4602
g5
VQ12866
p4603
sg7
L10461L
sg8
VMERTK
p4604
sa(dp4605
g5
VP08581
p4606
sg7
L4233L
sg8
VMET
p4607
sa(dp4608
g5
VP27448
p4609
sg7
L4140L
sg8
VMARK3
p4610
sa(dp4611
g5
VQ14680
p4612
sg7
L9833L
sg8
VMELK
p4613
sa(dp4614
g5
VQ13164
p4615
sg7
L5598L
sg8
VMAPK7
p4616
sa(dp4617
g5
VQ8TD08
p4618
sg7
L225689L
sg8
VMAPK15
p4619
sa(dp4620
g5
VP31152
p4621
sg7
L5596L
sg8
VMAPK4
p4622
sa(dp4623
g5
VO15264
p4624
sg7
L5603L
sg8
VMAPK13
p4625
sa(dp4626
g5
VQ16659
p4627
sg7
L5597L
sg8
VMAPK6
p4628
sa(dp4629
g5
VP53779
p4630
sg7
L5602L
sg8
VMAPK10
p4631
sa(dp4632
g5
VQ8NB16
p4633
sg7
L197259L
sg8
VMLKL
p4634
sa(dp4635
g5
VQ9NYL2
p4636
sg7
L51776L
sg8
VZAK
p4637
sa(dp4638
g5
VP53778
p4639
sg7
L6300L
sg8
VMAPK12
p4640
sa(dp4641
g5
VQ16539
p4642
sg7
L1432L
sg8
VMAPK14
p4643
sa(dp4644
g5
VQ8N4C8
p4645
sg7
L50488L
sg8
VMINK1
p4646
sa(dp4647
g5
VP27361
p4648
sg7
L5595L
sg8
VMAPK3
p4649
sa(dp4650
g5
VP45983
p4651
sg7
L5599L
sg8
VMAPK8
p4652
sa(dp4653
g5
VP36507
p4654
sg7
L5605L
sg8
VMAP2K2
p4655
sa(dp4656
g5
VQ13163
p4657
sg7
L5607L
sg8
VMAP2K5
p4658
sa(dp4659
g5
VP28482
p4660
sg7
L5594L
sg8
VMAPK1
p4661
sa(dp4662
g5
VP45984
p4663
sg7
L5601L
sg8
VMAPK9
p4664
sa(dp4665
g5
VQ9BUB5
p4666
sg7
L8569L
sg8
VMKNK1
p4667
sa(dp4668
g5
VQ9HBH9
p4669
sg7
L2872L
sg8
VMKNK2
p4670
sa(dp4671
g5
VP00540
p4672
sg7
L4342L
sg8
VMOS
p4673
sa(dp4674
g5
VP52564
p4675
sg7
L5608L
sg8
VMAP2K6
p4676
sa(dp4677
g5
VO14733
p4678
sg7
L5609L
sg8
VMAP2K7
p4679
sa(dp4680
g5
VQ6DT37
p4681
sg7
L55561L
sg8
VCDC42BPG
p4682
sa(dp4683
g5
VQ15759
p4684
sg7
L5600L
sg8
VMAPK11
p4685
sa(dp4686
g5
VQ02750
p4687
sg7
L5604L
sg8
VMAP2K1
p4688
sa(dp4689
g5
VP42345
p4690
sg7
L2475L
sg8
VMTOR
p4691
sa(dp4692
g5
VQ9UQ07
p4693
sg7
L5891L
sg8
VMOK
p4694
sa(dp4695
g5
VP46734
p4696
sg7
L5606L
sg8
VMAP2K3
p4697
sa(dp4698
g5
VP45985
p4699
sg7
L6416L
sg8
VMAP2K4
p4700
sa(dp4701
g5
VQ5VT25
p4702
sg7
L8476L
sg8
VCDC42BPA
p4703
sa(dp4704
g5
VQ9Y5S2
p4705
sg7
L9578L
sg8
VCDC42BPB
p4706
sa(dp4707
g5
VQ15746
p4708
sg7
L4638L
sg8
VMYLK
p4709
sa(dp4710
g5
VQ8NEV4
p4711
sg7
L53904L
sg8
VMYO3A
p4712
sa(dp4713
g5
VQ32MK0
p4714
sg7
L91807L
sg8
VMYLK3
p4715
sa(dp4716
g5
VQ8WXR4
p4717
sg7
L140469L
sg8
VMYO3B
p4718
sa(dp4719
g5
VO15146
p4720
sg7
L4593L
sg8
VMUSK
p4721
sa(dp4722
g5
VQ9H1R3
p4723
sg7
L85366L
sg8
VMYLK2
p4724
sa(dp4725
g5
VQ86YV6
p4726
sg7
L340156L
sg8
VMYLK4
p4727
sa(dp4728
g5
VQ8NG66
p4729
sg7
L79858L
sg8
VNEK11
p4730
sa(dp4731
g5
VQ96PY6
p4732
sg7
L4750L
sg8
VNEK1
p4733
sa(dp4734
g5
VP51956
p4735
sg7
L4752L
sg8
VNEK3
p4736
sa(dp4737
g5
VQ6P3R8
p4738
sg7
L341676L
sg8
VNEK5
p4739
sa(dp4740
g5
VQ86SG6
p4741
sg7
L284086L
sg8
VNEK8
p4742
sa(dp4743
g5
VQ8TD19
p4744
sg7
L91754L
sg8
VNEK9
p4745
sa(dp4746
g5
VQ9UBE8
p4747
sg7
L51701L
sg8
VNLK
p4748
sa(dp4749
g5
VQ6ZWH5
p4750
sg7
L152110L
sg8
VNEK10
p4751
sa(dp4752
g5
VQ8IY84
p4753
sg7
L167359L
sg8
VNIM1K
p4754
sa(dp4755
g5
VP51955
p4756
sg7
L4751L
sg8
VNEK2
p4757
sa(dp4758
g5
VP51957
p4759
sg7
L6787L
sg8
VNEK4
p4760
sa(dp4761
g5
VQ9HC98
p4762
sg7
L10783L
sg8
VNEK6
p4763
sa(dp4764
g5
VQ7Z2Y5
p4765
sg7
L203447L
sg8
VNRK
p4766
sa(dp4767
g5
VQ8TDX7
p4768
sg7
L140609L
sg8
VNEK7
p4769
sa(dp4770
g5
VQ9Y6K9
p4771
sg7
L8517L
sg8
VIKBKG
p4772
sa(dp4773
g5
VQ96KG9
p4774
sg7
L57410L
sg8
VSCYL1
p4775
sa(dp4776
g5
VQ9NSY0
p4777
sg7
L340371L
sg8
VNRBP2
p4778
sa(dp4779
g5
VP04629
p4780
sg7
L4914L
sg8
VNTRK1
p4781
sa(dp4782
g5
VQ9UHY1
p4783
sg7
L29959L
sg8
VNRBP1
p4784
sa(dp4785
g5
VQ16620
p4786
sg7
L4915L
sg8
VNTRK2
p4787
sa(dp4788
g5
VQ16288
p4789
sg7
L4916L
sg8
VNTRK3
p4790
sa(dp4791
g5
VQ9H093
p4792
sg7
L81788L
sg8
VNUAK2
p4793
sa(dp4794
g5
VO60285
p4795
sg7
L9891L
sg8
VNUAK1
p4796
sa(dp4797
g5
VQ5VST9
p4798
sg7
L84033L
sg8
VOBSCN
p4799
sa(dp4800
g5
VO95747
p4801
sg7
L9943L
sg8
VOXSR1
p4802
sa(dp4803
g5
VP27986
p4804
sg7
L5295L
sg8
VPIK3R1
p4805
sa(dp4806
g5
VO00443
p4807
sg7
L5286L
sg8
VPIK3C2A
p4808
sa(dp4809
g5
VQ9BTU6
p4810
sg7
L55361L
sg8
VPI4K2A
p4811
sa(dp4812
g5
VQ8TE04
p4813
sg7
L53354L
sg8
VPANK1
p4814
sa(dp4815
g5
VO75747
p4816
sg7
L5288L
sg8
VPIK3C2G
p4817
sa(dp4818
g5
VQ13153
p4819
sg7
L5058L
sg8
VPAK1
p4820
sa(dp4821
g5
VQ9P286
p4822
sg7
L57144L
sg8
VPAK7
p4823
sa(dp4824
g5
VQ9H999
p4825
sg7
L79646L
sg8
VPANK3
p4826
sa(dp4827
g5
VO00750
p4828
sg7
L5287L
sg8
VPIK3C2B
p4829
sa(dp4830
g5
VQ58A45
p4831
sg7
L255967L
sg8
VPAN3
p4832
sa(dp4833
g5
VQ13177
p4834
sg7
L5062L
sg8
VPAK2
p4835
sa(dp4836
g5
VO75914
p4837
sg7
L5063L
sg8
VPAK3
p4838
sa(dp4839
g5
VQ9NQU5
p4840
sg7
L56924L
sg8
VPAK6
p4841
sa(dp4842
g5
VO15530
p4843
sg7
L5170L
sg8
VPDPK1
p4844
sa(dp4845
g5
VO96013
p4846
sg7
L10298L
sg8
VPAK4
p4847
sa(dp4848
g5
VQ15120
p4849
sg7
L5165L
sg8
VPDK3
p4850
sa(dp4851
g5
VQ6A1A2
p4852
sg7
L653650L
sg8
VPDPK2P
p4853
sa(dp4854
g5
VQ8IZE3
p4855
sg7
L57147L
sg8
VSCYL3
p4856
sa(dp4857
g5
VQ9BZ23
p4858
sg7
L80025L
sg8
VPANK2
p4859
sa(dp4860
g5
VQ96RG2
p4861
sg7
L23178L
sg8
VPASK
p4862
sa(dp4863
g5
VQ16822
p4864
sg7
L5106L
sg8
VPCK2
p4865
sa(dp4866
g5
VQ15118
p4867
sg7
L5163L
sg8
VPDK1
p4868
sa(dp4869
g5
VO00764
p4870
sg7
L8566L
sg8
VPDXK
p4871
sa(dp4872
g5
VP17858
p4873
sg7
L5211L
sg8
VPFKL
p4874
sa(dp4875
g5
VQ9H792
p4876
sg7
L79834L
sg8
VPEAK1
p4877
sa(dp4878
g5
VP09619
p4879
sg7
L5159L
sg8
VPDGFRB
p4880
sa(dp4881
g5
VQ8N165
p4882
sg7
L149420L
sg8
VPDIK1L
p4883
sa(dp4884
g5
VQ15119
p4885
sg7
L5164L
sg8
VPDK2
p4886
sa(dp4887
g5
VQ16654
p4888
sg7
L5166L
sg8
VPDK4
p4889
sa(dp4890
g5
VQ9P1W9
p4891
sg7
L11040L
sg8
VPIM2
p4892
sa(dp4893
g5
VP00558
p4894
sg7
L5230L
sg8
VPGK1
p4895
sa(dp4896
g5
VQ8TBX8
p4897
sg7
L79837L
sg8
VPIP4K2C
p4898
sa(dp4899
g5
VP42336
p4900
sg7
L5290L
sg8
VPIK3CA
p4901
sa(dp4902
g5
VP48736
p4903
sg7
L5294L
sg8
VPIK3CG
p4904
sa(dp4905
g5
VQ16513
p4906
sg7
L5586L
sg8
VPKN2
p4907
sa(dp4908
g5
VP16234
p4909
sg7
L5156L
sg8
VPDGFRA
p4910
sa(dp4911
g5
VQ99570
p4912
sg7
L30849L
sg8
VPIK3R4
p4913
sa(dp4914
g5
VQ9UBF8
p4915
sg7
L5298L
sg8
VPI4KB
p4916
sa(dp4917
g5
VQ99755
p4918
sg7
L8394L
sg8
VPIP5K1A
p4919
sa(dp4920
g5
VP48426
p4921
sg7
L5305L
sg8
VPIP4K2A
p4922
sa(dp4923
g5
VQ8NEB9
p4924
sg7
L5289L
sg8
VPIK3C3
p4925
sa(dp4926
g5
VO00329
p4927
sg7
L5293L
sg8
VPIK3CD
p4928
sa(dp4929
g5
VQ496M5
p4930
sg7
L126520L
sg8
VPLK5
p4931
sa(dp4932
g5
VQ16816
p4933
sg7
L5260L
sg8
VPHKG1
p4934
sa(dp4935
g5
VP11309
p4936
sg7
L5292L
sg8
VPIM1
p4937
sa(dp4938
g5
VP42338
p4939
sg7
L5291L
sg8
VPIK3CB
p4940
sa(dp4941
g5
VQ16512
p4942
sg7
L5585L
sg8
VPKN1
p4943
sa(dp4944
g5
VP15735
p4945
sg7
L5261L
sg8
VPHKG2
p4946
sa(dp4947
g5
VP78356
p4948
sg7
L8396L
sg8
VPIP4K2B
p4949
sa(dp4950
g5
VO60331
p4951
sg7
L23396L
sg8
VPIP5K1C
p4952
sa(dp4953
g5
VP53350
p4954
sg7
L5347L
sg8
VPLK1
p4955
sa(dp4956
g5
VP42356
p4957
sg7
L5297L
sg8
VPI4KA
p4958
sa(dp4959
g5
VO14986
p4960
sg7
L8395L
sg8
VPIP5K1B
p4961
sa(dp4962
g5
VQ86V86
p4963
sg7
L415116L
sg8
VPIM3
p4964
sa(dp4965
g5
VQ9BXM7
p4966
sg7
L65018L
sg8
VPINK1
p4967
sa(dp4968
g5
VQ504Y2
p4969
sg7
L91461L
sg8
VPKDCC
p4970
sa(dp4971
g5
VQ9H4B4
p4972
sg7
L1263L
sg8
VPLK3
p4973
sa(dp4974
g5
VO00444
p4975
sg7
L10733L
sg8
VPLK4
p4976
sa(dp4977
g5
VQ99640
p4978
sg7
L9088L
sg8
VPKMYT1
p4979
sa(dp4980
g5
VQ6P5Z2
p4981
sg7
L29941L
sg8
VPKN3
p4982
sa(dp4983
g5
VQ9NYY3
p4984
sg7
L10769L
sg8
VPLK2
p4985
sa(dp4986
g5
VP78527
p4987
sg7
L5591L
sg8
VPRKDC
p4988
sa(dp4989
g5
VP51817
p4990
sg7
L5613L
sg8
VPRKX
p4991
sa(dp4992
g5
VQ13523
p4993
sg7
L8899L
sg8
VPRPF4B
p4994
sa(dp4995
g5
VQ96S44
p4996
sg7
L112858L
sg8
VTP53RK
p4997
sa(dp4998
g5
VO75569
p4999
sg7
L8575L
sg8
VPRKRA
p5000
sa(dp5001
g5
VO43930
p5002
sg7
L5616L
sg8
VPRKY
p5003
sa(dp5004
g5
VQ13882
p5005
sg7
L5753L
sg8
VPTK6
p5006
sa(dp5007
g5
VQ13308
p5008
sg7
L5754L
sg8
VPTK7
p5009
sa(dp5010
g5
VQ7Z7A4
p5011
sg7
L54899L
sg8
VPXK
p5012
sa(dp5013
g5
VP04049
p5014
sg7
L5894L
sg8
VRAF1
p5015
sa(dp5016
g5
VQ9BRS2
p5017
sg7
L83732L
sg8
VRIOK1
p5018
sa(dp5019
g5
VQ13546
p5020
sg7
L8737L
sg8
VRIPK1
p5021
sa(dp5022
g5
VQ9Y572
p5023
sg7
L11035L
sg8
VRIPK3
p5024
sa(dp5025
g5
VP07949
p5026
sg7
L5979L
sg8
VRET
p5027
sa(dp5028
g5
VO43353
p5029
sg7
L8767L
sg8
VRIPK2
p5030
sa(dp5031
g5
VQ9BVS4
p5032
sg7
L55781L
sg8
VRIOK2
p5033
sa(dp5034
g5
VO14730
p5035
sg7
L8780L
sg8
VRIOK3
p5036
sa(dp5037
g5
VQ15835
p5038
sg7
L6011L
sg8
VGRK1
p5039
sa(dp5040
g5
VP57078
p5041
sg7
L54101L
sg8
VRIPK4
p5042
sa(dp5043
g5
VP08922
p5044
sg7
L6098L
sg8
VROS1
p5045
sa(dp5046
g5
VQ05823
p5047
sg7
L6041L
sg8
VRNASEL
p5048
sa(dp5049
g5
VQ04912
p5050
sg7
L4486L
sg8
VMST1R
p5051
sa(dp5052
g5
VQ13464
p5053
sg7
L6093L
sg8
VROCK1
p5054
sa(dp5055
g5
VQ01973
p5056
sg7
L4919L
sg8
VROR1
p5057
sa(dp5058
g5
VQ01974
p5059
sg7
L4920L
sg8
VROR2
p5060
sa(dp5061
g5
VQ9Y6S9
p5062
sg7
L83694L
sg8
VRPS6KL1
p5063
sa(dp5064
g5
VO75116
p5065
sg7
L9475L
sg8
VROCK2
p5066
sa(dp5067
g5
VP34925
p5068
sg7
L6259L
sg8
VRYK
p5069
sa(dp5070
g5
VP0C263
p5071
sg7
L646643L
sg8
VSBK2
p5072
sa(dp5073
g5
VQ6P3W7
p5074
sg7
L55681L
sg8
VSCYL2
p5075
sa(dp5076
g5
VP0C264
p5077
sg7
L100130827L
sg8
VSBK3
p5078
sa(dp5079
g5
VQ52WX2
p5080
sg7
L388228L
sg8
VSBK1
p5081
sa(dp5082
g5
VQ96LW2
p5083
sg7
Nsg8
VSGK494
p5084
sa(dp5085
g5
VP57059
p5086
sg7
L150094L
sg8
VSIK1
p5087
sa(dp5088
g5
VQ9H5K3
p5089
sg7
L84197L
sg8
VPOMK
p5090
sa(dp5091
g5
VQ86YV5
p5092
sg7
L157285L
sg8
VSGK223
p5093
sa(dp5094
g5
VQ96BR1
p5095
sg7
L23678L
sg8
VSGK3
p5096
sa(dp5097
g5
VQ9Y2K2
p5098
sg7
L23387L
sg8
VSIK3
p5099
sa(dp5100
g5
VO00141
p5101
sg7
L6446L
sg8
VSGK1
p5102
sa(dp5103
g5
VQ9H0K1
p5104
sg7
L23235L
sg8
VSIK2
p5105
sa(dp5106
g5
VQ9NRH2
p5107
sg7
L54861L
sg8
VSNRK
p5108
sa(dp5109
g5
VQ9H2G2
p5110
sg7
L9748L
sg8
VSLK
p5111
sa(dp5112
g5
VQ15772
p5113
sg7
L10290L
sg8
VSPEG
p5114
sa(dp5115
g5
VQ9HBY8
p5116
sg7
L10110L
sg8
VSGK2
p5117
sa(dp5118
g5
VQ9UPE1
p5119
sg7
L26576L
sg8
VSRPK3
p5120
sa(dp5121
g5
VQ96Q15
p5122
sg7
L23049L
sg8
VSMG1
p5123
sa(dp5124
g5
VQ96SB4
p5125
sg7
L6732L
sg8
VSRPK1
p5126
sa(dp5127
g5
VP78362
p5128
sg7
L6733L
sg8
VSRPK2
p5129
sa(dp5130
g5
VQ86UX6
p5131
sg7
L282974L
sg8
VSTK32C
p5132
sa(dp5133
g5
VQ9BYT3
p5134
sg7
L65975L
sg8
VSTK33
p5135
sa(dp5136
g5
VP12931
p5137
sg7
L6714L
sg8
VSRC
p5138
sa(dp5139
g5
VQ9NY57
p5140
sg7
L55351L
sg8
VSTK32B
p5141
sa(dp5142
g5
VO94804
p5143
sg7
L6793L
sg8
VSTK10
p5144
sa(dp5145
g5
VQ9Y6E0
p5146
sg7
L8428L
sg8
VSTK24
p5147
sa(dp5148
g5
VQ9P289
p5149
sg7
L51765L
sg8
VSTK26
p5150
sa(dp5151
g5
VQ15208
p5152
sg7
L11329L
sg8
VSTK38
p5153
sa(dp5154
g5
VQ8N2I9
p5155
sg7
L83931L
sg8
VSTK40
p5156
sa(dp5157
g5
VQ13043
p5158
sg7
L6789L
sg8
VSTK4
p5159
sa(dp5160
g5
VQ6J9G0
p5161
sg7
L55359L
sg8
VSTYK1
p5162
sa(dp5163
g5
VQ9NRA0
p5164
sg7
L56848L
sg8
VSPHK2
p5165
sa(dp5166
g5
VQ9UEE5
p5167
sg7
L9263L
sg8
VSTK17A
p5168
sa(dp5169
g5
VQ9NRP7
p5170
sg7
L27148L
sg8
VSTK36
p5171
sa(dp5172
g5
VQ9C0K7
p5173
sg7
L55437L
sg8
VSTRADB
p5174
sa(dp5175
g5
VQ9NYA1
p5176
sg7
L8877L
sg8
VSPHK1
p5177
sa(dp5178
g5
VO94768
p5179
sg7
L9262L
sg8
VSTK17B
p5180
sa(dp5181
g5
VQ8WU08
p5182
sg7
L202374L
sg8
VSTK32A
p5183
sa(dp5184
g5
VQ9Y2H1
p5185
sg7
L23012L
sg8
VSTK38L
p5186
sa(dp5187
g5
VO75716
p5188
sg7
L8576L
sg8
VSTK16
p5189
sa(dp5190
g5
VQ8NE28
p5191
sg7
L169436L
sg8
VSTKLD1
p5192
sa(dp5193
g5
VQ9UEW8
p5194
sg7
L27347L
sg8
VSTK39
p5195
sa(dp5196
g5
VQ13188
p5197
sg7
L6788L
sg8
VSTK3
p5198
sa(dp5199
g5
VQ9H3Y6
p5200
sg7
L6725L
sg8
VSRMS
p5201
sa(dp5202
g5
VQ7RTN6
p5203
sg7
L92335L
sg8
VSTRADA
p5204
sa(dp5205
g5
VO00506
p5206
sg7
L10494L
sg8
VSTK25
p5207
sa(dp5208
g5
VQ15831
p5209
sg7
L6794L
sg8
VSTK11
p5210
sa(dp5211
g5
VQ9BXU1
p5212
sg7
L56164L
sg8
VSTK31
p5213
sa(dp5214
g5
VQ8TDR2
p5215
sg7
L140901L
sg8
VSTK35
p5216
sa(dp5217
g5
VQ9UL54
p5218
sg7
L9344L
sg8
VTAOK2
p5219
sa(dp5220
g5
VP21675
p5221
sg7
L6872L
sg8
VTAF1
p5222
sa(dp5223
g5
VQ7L7X3
p5224
sg7
L57551L
sg8
VTAOK1
p5225
sa(dp5226
g5
VQ9H2K8
p5227
sg7
L51347L
sg8
VTAOK3
p5228
sa(dp5229
g5
VQ96S53
p5230
sg7
L10420L
sg8
VTESK2
p5231
sa(dp5232
g5
VQ15750
p5233
sg7
L10454L
sg8
VTAB1
p5234
sa(dp5235
g5
VQ15569
p5236
sg7
L7016L
sg8
VTESK1
p5237
sa(dp5238
g5
VP42680
p5239
sg7
L7006L
sg8
VTEC
p5240
sa(dp5241
g5
VP36897
p5242
sg7
L7046L
sg8
VTGFBR1
p5243
sa(dp5244
g5
VP35590
p5245
sg7
L7075L
sg8
VTIE1
p5246
sa(dp5247
g5
VQ02763
p5248
sg7
L7010L
sg8
VTEK
p5249
sa(dp5250
g5
VQ8TEA7
p5251
sg7
L93627L
sg8
VTBCK
p5252
sa(dp5253
g5
VQ9UHD2
p5254
sg7
L29110L
sg8
VTBK1
p5255
sa(dp5256
g5
VQ8IWB6
p5257
sg7
L56155L
sg8
VTEX14
p5258
sa(dp5259
g5
VP37173
p5260
sg7
L7048L
sg8
VTGFBR2
p5261
sa(dp5262
g5
VQ8WZ42
p5263
sg7
L7273L
sg8
VTTN
p5264
sa(dp5265
g5
VQ9UKI8
p5266
sg7
L9874L
sg8
VTLK1
p5267
sa(dp5268
g5
VQ13470
p5269
sg7
L8711L
sg8
VTNK1
p5270
sa(dp5271
g5
VQ9H3S4
p5272
sg7
L27010L
sg8
VTPK1
p5273
sa(dp5274
g5
VQ86UE8
p5275
sg7
L11011L
sg8
VTLK2
p5276
sa(dp5277
g5
VQ59H18
p5278
sg7
L51086L
sg8
VTNNI3K
p5279
sa(dp5280
g5
VQ9UKE5
p5281
sg7
L23043L
sg8
VTNIK
p5282
sa(dp5283
g5
VQ92519
p5284
sg7
L28951L
sg8
VTRIB2
p5285
sa(dp5286
g5
VQ96KB5
p5287
sg7
L55872L
sg8
VPBK
p5288
sa(dp5289
g5
VQ96PF2
p5290
sg7
L23617L
sg8
VTSSK2
p5291
sa(dp5292
g5
VQ9BXA6
p5293
sg7
L83983L
sg8
VTSSK6
p5294
sa(dp5295
g5
VP33981
p5296
sg7
L7272L
sg8
VTTK
p5297
sa(dp5298
g5
VQ9BX84
p5299
sg7
L140803L
sg8
VTRPM6
p5300
sa(dp5301
g5
VP42681
p5302
sg7
L7294L
sg8
VTXK
p5303
sa(dp5304
g5
VQ96RU8
p5305
sg7
L10221L
sg8
VTRIB1
p5306
sa(dp5307
g5
VQ96RU7
p5308
sg7
L57761L
sg8
VTRIB3
p5309
sa(dp5310
g5
VO75962
p5311
sg7
L7204L
sg8
VTRIO
p5312
sa(dp5313
g5
VQ9BXA7
p5314
sg7
L83942L
sg8
VTSSK1B
p5315
sa(dp5316
g5
VQ6IQ55
p5317
sg7
L146057L
sg8
VTTBK2
p5318
sa(dp5319
g5
VQ6SA08
p5320
sg7
L283629L
sg8
VTSSK4
p5321
sa(dp5322
g5
VQ5TCY1
p5323
sg7
L84630L
sg8
VTTBK1
p5324
sa(dp5325
g5
VP29597
p5326
sg7
L7297L
sg8
VTYK2
p5327
sa(dp5328
g5
VQ06418
p5329
sg7
L7301L
sg8
VTYRO3
p5330
sa(dp5331
g5
VQ96PN8
p5332
sg7
L81629L
sg8
VTSSK3
p5333
sa(dp5334
g5
VQ8IYT8
p5335
sg7
L9706L
sg8
VULK2
p5336
sa(dp5337
g5
VQ9HA47
p5338
sg7
L83549L
sg8
VUCK1
p5339
sa(dp5340
g5
VP30530
p5341
sg7
L558L
sg8
VAXL
p5342
sa(dp5343
g5
VQ96C45
p5344
sg7
L54986L
sg8
VULK4
p5345
sa(dp5346
g5
VQ8TAS1
p5347
sg7
L127933L
sg8
VUHMK1
p5348
sa(dp5349
g5
VQ9BZX2
p5350
sg7
L7371L
sg8
VUCK2
p5351
sa(dp5352
g5
VO75385
p5353
sg7
L8408L
sg8
VULK1
p5354
sa(dp5355
g5
VQ6PHR2
p5356
sg7
L25989L
sg8
VULK3
p5357
sa(dp5358
g5
VP17948
p5359
sg7
L2321L
sg8
VFLT1
p5360
sa(dp5361
g5
VP35916
p5362
sg7
L2324L
sg8
VFLT4
p5363
sa(dp5364
g5
VP35968
p5365
sg7
L3791L
sg8
VKDR
p5366
sa(dp5367
g5
VQ8IV63
p5368
sg7
L51231L
sg8
VVRK3
p5369
sa(dp5370
g5
VP30291
p5371
sg7
L7465L
sg8
VWEE1
p5372
sa(dp5373
g5
VQ9BYP7
p5374
sg7
L65267L
sg8
VWNK3
p5375
sa(dp5376
g5
VQ9Y3S1
p5377
sg7
L65268L
sg8
VWNK2
p5378
sa(dp5379
g5
VQ9H4A3
p5380
sg7
L65125L
sg8
VWNK1
p5381
sa(dp5382
g5
VQ99986
p5383
sg7
L7443L
sg8
VVRK1
p5384
sa(dp5385
g5
VQ86Y07
p5386
sg7
L7444L
sg8
VVRK2
p5387
sa(dp5388
g5
VQ96J92
p5389
sg7
L65266L
sg8
VWNK4
p5390
sa(dp5391
g5
VP0C1S8
p5392
sg7
L494551L
sg8
VWEE2
p5393
sa(dp5394
g5
VP07947
p5395
sg7
L7525L
sg8
VYES1
p5396
sa(dp5397
g5
VP43403
p5398
sg7
L7535L
sg8
VZAP70
p5399
sas.